---
triple:          'arm64-apple-darwin'
binary-path:     '/Users/pasitmalarat/Desktop/cs_kmitl/P2_term2/Com_Graphics_Assingment/assignment3/main'
relocations:
  - { offsetInCU: 0x74BC, offset: 0x74BC, size: 0x8, addend: 0x0, symName: __ZNSt3__124__put_character_sequenceB7v160006IcNS_11char_traitsIcEEEERNS_13basic_ostreamIT_T0_EES7_PKS4_m, symObjAddr: 0x3994, symBinAddr: 0x1000080A0, symSize: 0x1F4 }
  - { offsetInCU: 0xFC80, offset: 0xFC80, size: 0x8, addend: 0x0, symName: __ZNSt3__1lsB7v160006INS_11char_traitsIcEEEERNS_13basic_ostreamIcT_EES6_PKc, symObjAddr: 0x1554, symBinAddr: 0x100005C60, symSize: 0x48 }
  - { offsetInCU: 0xFCC6, offset: 0xFCC6, size: 0x8, addend: 0x0, symName: __ZNSt3__14endlB7v160006IcNS_11char_traitsIcEEEERNS_13basic_ostreamIT_T0_EES7_, symObjAddr: 0x15C8, symBinAddr: 0x100005CD4, symSize: 0x58 }
  - { offsetInCU: 0xFD06, offset: 0xFD06, size: 0x8, addend: 0x0, symName: __ZNSt3__17getlineB7v160006IcNS_11char_traitsIcEENS_9allocatorIcEEEERNS_13basic_istreamIT_T0_EES9_RNS_12basic_stringIS6_S7_T1_EE, symObjAddr: 0x164C, symBinAddr: 0x100005D58, symSize: 0x5C }
  - { offsetInCU: 0xFD5E, offset: 0xFD5E, size: 0x8, addend: 0x0, symName: __ZNSt3__1eqB7v160006IcNS_11char_traitsIcEENS_9allocatorIcEEEEbRKNS_12basic_stringIT_T0_T1_EEPKS6_, symObjAddr: 0x16F4, symBinAddr: 0x100005E00, symSize: 0xC0 }
  - { offsetInCU: 0xFDC5, offset: 0xFDC5, size: 0x8, addend: 0x0, symName: __ZNSt3__1neB7v160006IP4FaceEEbRKNS_11__wrap_iterIT_EES7_, symObjAddr: 0x1B3C, symBinAddr: 0x100006248, symSize: 0x34 }
  - { offsetInCU: 0x1020E, offset: 0x1020E, size: 0x8, addend: 0x0, symName: __ZNSt3__119__debug_db_insert_cB7v160006INS_6vectorIN3glm3vecILi3EfLNS2_9qualifierE0EEENS_9allocatorIS5_EEEEEEvPT_, symObjAddr: 0x24A4, symBinAddr: 0x100006BB0, symSize: 0x10 }
  - { offsetInCU: 0x1023F, offset: 0x1023F, size: 0x8, addend: 0x0, symName: __ZNSt3__118__debug_db_erase_cB7v160006INS_6vectorIN3glm3vecILi3EfLNS2_9qualifierE0EEENS_9allocatorIS5_EEEEEEvPT_, symObjAddr: 0x277C, symBinAddr: 0x100006E88, symSize: 0x10 }
  - { offsetInCU: 0x10270, offset: 0x10270, size: 0x8, addend: 0x0, symName: __ZNSt3__112__to_addressB7v160006IN3glm3vecILi3EfLNS1_9qualifierE0EEEEEPT_S6_, symObjAddr: 0x2898, symBinAddr: 0x100006FA4, symSize: 0x14 }
  - { offsetInCU: 0x102A5, offset: 0x102A5, size: 0x8, addend: 0x0, symName: __ZNSt3__130__libcpp_is_constant_evaluatedB7v160006Ev, symObjAddr: 0x2A00, symBinAddr: 0x10000710C, symSize: 0xC }
  - { offsetInCU: 0x102C2, offset: 0x102C2, size: 0x8, addend: 0x0, symName: __ZNSt3__119__libcpp_deallocateB7v160006EPvmm, symObjAddr: 0x2A0C, symBinAddr: 0x100007118, symSize: 0x30 }
  - { offsetInCU: 0x1030A, offset: 0x1030A, size: 0x8, addend: 0x0, symName: __ZNSt3__127__do_deallocate_handle_sizeB7v160006IJEEEvPvmDpT_, symObjAddr: 0x2A3C, symBinAddr: 0x100007148, symSize: 0x28 }
  - { offsetInCU: 0x10348, offset: 0x10348, size: 0x8, addend: 0x0, symName: __ZNSt3__124__libcpp_operator_deleteB7v160006IJPvEEEvDpT_, symObjAddr: 0x2A64, symBinAddr: 0x100007170, symSize: 0x24 }
  - { offsetInCU: 0x1037D, offset: 0x1037D, size: 0x8, addend: 0x0, symName: __ZNSt3__119__debug_db_insert_cB7v160006INS_6vectorIN3glm3vecILi2EfLNS2_9qualifierE0EEENS_9allocatorIS5_EEEEEEvPT_, symObjAddr: 0x2BA8, symBinAddr: 0x1000072B4, symSize: 0x10 }
  - { offsetInCU: 0x103AE, offset: 0x103AE, size: 0x8, addend: 0x0, symName: __ZNSt3__118__debug_db_erase_cB7v160006INS_6vectorIN3glm3vecILi2EfLNS2_9qualifierE0EEENS_9allocatorIS5_EEEEEEvPT_, symObjAddr: 0x2E64, symBinAddr: 0x100007570, symSize: 0x10 }
  - { offsetInCU: 0x103DF, offset: 0x103DF, size: 0x8, addend: 0x0, symName: __ZNSt3__112__to_addressB7v160006IN3glm3vecILi2EfLNS1_9qualifierE0EEEEEPT_S6_, symObjAddr: 0x2F80, symBinAddr: 0x10000768C, symSize: 0x14 }
  - { offsetInCU: 0x10414, offset: 0x10414, size: 0x8, addend: 0x0, symName: __ZNSt3__119__debug_db_insert_cB7v160006INS_6vectorI4FaceNS_9allocatorIS2_EEEEEEvPT_, symObjAddr: 0x3204, symBinAddr: 0x100007910, symSize: 0x10 }
  - { offsetInCU: 0x10445, offset: 0x10445, size: 0x8, addend: 0x0, symName: __ZNSt3__118__debug_db_erase_cB7v160006INS_6vectorI4FaceNS_9allocatorIS2_EEEEEEvPT_, symObjAddr: 0x34DC, symBinAddr: 0x100007BE8, symSize: 0x10 }
  - { offsetInCU: 0x10476, offset: 0x10476, size: 0x8, addend: 0x0, symName: __ZNSt3__112__to_addressB7v160006I4FaceEEPT_S3_, symObjAddr: 0x35F8, symBinAddr: 0x100007D04, symSize: 0x14 }
  - { offsetInCU: 0x104AB, offset: 0x104AB, size: 0x8, addend: 0x0, symName: __ZNSt3__116__pad_and_outputB7v160006IcNS_11char_traitsIcEEEENS_19ostreambuf_iteratorIT_T0_EES6_PKS4_S8_S8_RNS_8ios_baseES4_, symObjAddr: 0x3BEC, symBinAddr: 0x1000082F8, symSize: 0x248 }
  - { offsetInCU: 0x1057A, offset: 0x1057A, size: 0x8, addend: 0x0, symName: __ZNSt3__119__debug_db_insert_cB7v160006INS_12basic_stringIcNS_11char_traitsIcEENS_9allocatorIcEEEEEEvPT_, symObjAddr: 0x407C, symBinAddr: 0x100008788, symSize: 0x10 }
  - { offsetInCU: 0x105AB, offset: 0x105AB, size: 0x8, addend: 0x0, symName: __ZNSt3__112__to_addressB7v160006IKcEEPT_S3_, symObjAddr: 0x4148, symBinAddr: 0x100008854, symSize: 0x14 }
  - { offsetInCU: 0x10613, offset: 0x10613, size: 0x8, addend: 0x0, symName: __ZNSt3__19use_facetB7v160006INS_5ctypeIcEEEERKT_RKNS_6localeE, symObjAddr: 0x4418, symBinAddr: 0x100008B24, symSize: 0x2C }
  - { offsetInCU: 0x10AE2, offset: 0x10AE2, size: 0x8, addend: 0x0, symName: __ZNSt3__118__constexpr_strlenB7v160006EPKc, symObjAddr: 0x447C, symBinAddr: 0x100008B88, symSize: 0x24 }
  - { offsetInCU: 0x10B0E, offset: 0x10B0E, size: 0x8, addend: 0x0, symName: __ZNSt3__117__libcpp_allocateB7v160006Emm, symObjAddr: 0x48A4, symBinAddr: 0x100008FB0, symSize: 0x28 }
  - { offsetInCU: 0x10B4B, offset: 0x10B4B, size: 0x8, addend: 0x0, symName: __ZNSt3__121__libcpp_operator_newB7v160006IJmEEEPvDpT_, symObjAddr: 0x48E0, symBinAddr: 0x100008FEC, symSize: 0x24 }
  - { offsetInCU: 0x10B84, offset: 0x10B84, size: 0x8, addend: 0x0, symName: __ZNSt3__17getlineB7v160006IcNS_11char_traitsIcEENS_9allocatorIcEEEERNS_13basic_istreamIT_T0_EES9_RNS_12basic_stringIS6_S7_T1_EES6_, symObjAddr: 0x493C, symBinAddr: 0x100009048, symSize: 0x238 }
  - { offsetInCU: 0x10C42, offset: 0x10C42, size: 0x8, addend: 0x0, symName: __ZNSt3__125__debug_db_invalidate_allB7v160006INS_12basic_stringIcNS_11char_traitsIcEENS_9allocatorIcEEEEEEvPT_, symObjAddr: 0x4E6C, symBinAddr: 0x100009578, symSize: 0x10 }
  - { offsetInCU: 0x10CA6, offset: 0x10CA6, size: 0x8, addend: 0x0, symName: __ZNSt3__13maxB7v160006ImEERKT_S3_S3_, symObjAddr: 0x56E8, symBinAddr: 0x100009DF4, symSize: 0x2C }
  - { offsetInCU: 0x10CE9, offset: 0x10CE9, size: 0x8, addend: 0x0, symName: __ZNSt3__13minB7v160006ImEERKT_S3_S3_, symObjAddr: 0x5714, symBinAddr: 0x100009E20, symSize: 0x2C }
  - { offsetInCU: 0x10F2D, offset: 0x10F2D, size: 0x8, addend: 0x0, symName: __ZNSt3__13minB7v160006ImNS_6__lessImmEEEERKT_S5_S5_T0_, symObjAddr: 0x57A0, symBinAddr: 0x100009EAC, symSize: 0x54 }
  - { offsetInCU: 0x10FC2, offset: 0x10FC2, size: 0x8, addend: 0x0, symName: __ZNSt3__120__throw_length_errorB7v160006EPKc, symObjAddr: 0x5880, symBinAddr: 0x100009F8C, symSize: 0x64 }
  - { offsetInCU: 0x10FEA, offset: 0x10FEA, size: 0x8, addend: 0x0, symName: __ZNSt3__13maxB7v160006ImNS_6__lessImmEEEERKT_S5_S5_T0_, symObjAddr: 0x5964, symBinAddr: 0x10000A070, symSize: 0x54 }
  - { offsetInCU: 0x11044, offset: 0x11044, size: 0x8, addend: 0x0, symName: __ZNSt3__119__allocate_at_leastB7v160006INS_9allocatorIN3glm3vecILi3EfLNS2_9qualifierE0EEEEEEENS_19__allocation_resultINS_16allocator_traitsIT_E7pointerEEERS9_m, symObjAddr: 0x5AD4, symBinAddr: 0x10000A1E0, symSize: 0x40 }
  - { offsetInCU: 0x11087, offset: 0x11087, size: 0x8, addend: 0x0, symName: __ZNSt3__142__uninitialized_allocator_move_if_noexceptB7v160006INS_9allocatorIN3glm3vecILi3EfLNS2_9qualifierE0EEEEENS_16reverse_iteratorIPS5_EES9_S9_EET2_RT_T0_T1_SA_, symObjAddr: 0x5CBC, symBinAddr: 0x10000A3C8, symSize: 0x134 }
  - { offsetInCU: 0x11127, offset: 0x11127, size: 0x8, addend: 0x0, symName: __ZNSt3__14swapB7v160006IPN3glm3vecILi3EfLNS1_9qualifierE0EEEEEvRT_S7_, symObjAddr: 0x5E3C, symBinAddr: 0x10000A548, symSize: 0x3C }
  - { offsetInCU: 0x11178, offset: 0x11178, size: 0x8, addend: 0x0, symName: __ZNSt3__125__debug_db_invalidate_allB7v160006INS_6vectorIN3glm3vecILi3EfLNS2_9qualifierE0EEENS_9allocatorIS5_EEEEEEvPT_, symObjAddr: 0x5F40, symBinAddr: 0x10000A64C, symSize: 0x10 }
  - { offsetInCU: 0x111A9, offset: 0x111A9, size: 0x8, addend: 0x0, symName: __ZNSt3__122__make_exception_guardB7v160006INS_29_AllocatorDestroyRangeReverseINS_9allocatorIN3glm3vecILi3EfLNS3_9qualifierE0EEEEENS_16reverse_iteratorIPS6_EEEEEENS_28__exception_guard_exceptionsIT_EESD_, symObjAddr: 0x5F50, symBinAddr: 0x10000A65C, symSize: 0x4C }
  - { offsetInCU: 0x111DF, offset: 0x111DF, size: 0x8, addend: 0x0, symName: __ZNSt3__1neB7v160006IPN3glm3vecILi3EfLNS1_9qualifierE0EEES5_EEbRKNS_16reverse_iteratorIT_EERKNS6_IT0_EE, symObjAddr: 0x5FE0, symBinAddr: 0x10000A6EC, symSize: 0x48 }
  - { offsetInCU: 0x1122B, offset: 0x1122B, size: 0x8, addend: 0x0, symName: __ZNSt3__112__to_addressB7v160006INS_16reverse_iteratorIPN3glm3vecILi3EfLNS2_9qualifierE0EEEEEvEENS_5decayIDTclsr19__to_address_helperIT_EE6__callclsr3stdE7declvalIRKS9_EEEEE4typeESB_, symObjAddr: 0x6028, symBinAddr: 0x10000A734, symSize: 0x24 }
  - { offsetInCU: 0x1128A, offset: 0x1128A, size: 0x8, addend: 0x0, symName: __ZNSt3__119__allocator_destroyB7v160006INS_9allocatorIN3glm3vecILi3EfLNS2_9qualifierE0EEEEENS_16reverse_iteratorINS7_IPS5_EEEESA_EEvRT_T0_T1_, symObjAddr: 0x62E4, symBinAddr: 0x10000A9F0, symSize: 0x70 }
  - { offsetInCU: 0x112EF, offset: 0x112EF, size: 0x8, addend: 0x0, symName: __ZNSt3__1neB7v160006INS_16reverse_iteratorIPN3glm3vecILi3EfLNS2_9qualifierE0EEEEES7_EEbRKNS1_IT_EERKNS1_IT0_EE, symObjAddr: 0x6390, symBinAddr: 0x10000AA9C, symSize: 0x60 }
  - { offsetInCU: 0x1133B, offset: 0x1133B, size: 0x8, addend: 0x0, symName: __ZNSt3__112__to_addressB7v160006INS_16reverse_iteratorINS1_IPN3glm3vecILi3EfLNS2_9qualifierE0EEEEEEEvEENS_5decayIDTclsr19__to_address_helperIT_EE6__callclsr3stdE7declvalIRKSA_EEEEE4typeESC_, symObjAddr: 0x63F0, symBinAddr: 0x10000AAFC, symSize: 0x24 }
  - { offsetInCU: 0x1139A, offset: 0x1139A, size: 0x8, addend: 0x0, symName: __ZNSt3__119__allocate_at_leastB7v160006INS_9allocatorIN3glm3vecILi2EfLNS2_9qualifierE0EEEEEEENS_19__allocation_resultINS_16allocator_traitsIT_E7pointerEEERS9_m, symObjAddr: 0x6F04, symBinAddr: 0x10000B610, symSize: 0x40 }
  - { offsetInCU: 0x113DD, offset: 0x113DD, size: 0x8, addend: 0x0, symName: __ZNSt3__142__uninitialized_allocator_move_if_noexceptB7v160006INS_9allocatorIN3glm3vecILi2EfLNS2_9qualifierE0EEEEENS_16reverse_iteratorIPS5_EES9_S9_EET2_RT_T0_T1_SA_, symObjAddr: 0x70E4, symBinAddr: 0x10000B7F0, symSize: 0x134 }
  - { offsetInCU: 0x1147D, offset: 0x1147D, size: 0x8, addend: 0x0, symName: __ZNSt3__14swapB7v160006IPN3glm3vecILi2EfLNS1_9qualifierE0EEEEEvRT_S7_, symObjAddr: 0x7264, symBinAddr: 0x10000B970, symSize: 0x3C }
  - { offsetInCU: 0x114CE, offset: 0x114CE, size: 0x8, addend: 0x0, symName: __ZNSt3__125__debug_db_invalidate_allB7v160006INS_6vectorIN3glm3vecILi2EfLNS2_9qualifierE0EEENS_9allocatorIS5_EEEEEEvPT_, symObjAddr: 0x734C, symBinAddr: 0x10000BA58, symSize: 0x10 }
  - { offsetInCU: 0x114FF, offset: 0x114FF, size: 0x8, addend: 0x0, symName: __ZNSt3__122__make_exception_guardB7v160006INS_29_AllocatorDestroyRangeReverseINS_9allocatorIN3glm3vecILi2EfLNS3_9qualifierE0EEEEENS_16reverse_iteratorIPS6_EEEEEENS_28__exception_guard_exceptionsIT_EESD_, symObjAddr: 0x735C, symBinAddr: 0x10000BA68, symSize: 0x4C }
  - { offsetInCU: 0x11535, offset: 0x11535, size: 0x8, addend: 0x0, symName: __ZNSt3__1neB7v160006IPN3glm3vecILi2EfLNS1_9qualifierE0EEES5_EEbRKNS_16reverse_iteratorIT_EERKNS6_IT0_EE, symObjAddr: 0x73EC, symBinAddr: 0x10000BAF8, symSize: 0x48 }
  - { offsetInCU: 0x11581, offset: 0x11581, size: 0x8, addend: 0x0, symName: __ZNSt3__112__to_addressB7v160006INS_16reverse_iteratorIPN3glm3vecILi2EfLNS2_9qualifierE0EEEEEvEENS_5decayIDTclsr19__to_address_helperIT_EE6__callclsr3stdE7declvalIRKS9_EEEEE4typeESB_, symObjAddr: 0x7434, symBinAddr: 0x10000BB40, symSize: 0x24 }
  - { offsetInCU: 0x115E0, offset: 0x115E0, size: 0x8, addend: 0x0, symName: __ZNSt3__119__allocator_destroyB7v160006INS_9allocatorIN3glm3vecILi2EfLNS2_9qualifierE0EEEEENS_16reverse_iteratorINS7_IPS5_EEEESA_EEvRT_T0_T1_, symObjAddr: 0x76F0, symBinAddr: 0x10000BDFC, symSize: 0x70 }
  - { offsetInCU: 0x11645, offset: 0x11645, size: 0x8, addend: 0x0, symName: __ZNSt3__1neB7v160006INS_16reverse_iteratorIPN3glm3vecILi2EfLNS2_9qualifierE0EEEEES7_EEbRKNS1_IT_EERKNS1_IT0_EE, symObjAddr: 0x779C, symBinAddr: 0x10000BEA8, symSize: 0x60 }
  - { offsetInCU: 0x11691, offset: 0x11691, size: 0x8, addend: 0x0, symName: __ZNSt3__112__to_addressB7v160006INS_16reverse_iteratorINS1_IPN3glm3vecILi2EfLNS2_9qualifierE0EEEEEEEvEENS_5decayIDTclsr19__to_address_helperIT_EE6__callclsr3stdE7declvalIRKSA_EEEEE4typeESC_, symObjAddr: 0x77FC, symBinAddr: 0x10000BF08, symSize: 0x24 }
  - { offsetInCU: 0x116F0, offset: 0x116F0, size: 0x8, addend: 0x0, symName: __ZNSt3__119__allocate_at_leastB7v160006INS_9allocatorI4FaceEEEENS_19__allocation_resultINS_16allocator_traitsIT_E7pointerEEERS6_m, symObjAddr: 0x8320, symBinAddr: 0x10000CA2C, symSize: 0x40 }
  - { offsetInCU: 0x11733, offset: 0x11733, size: 0x8, addend: 0x0, symName: __ZNSt3__142__uninitialized_allocator_move_if_noexceptB7v160006INS_9allocatorI4FaceEENS_16reverse_iteratorIPS2_EES6_S2_vEET1_RT_T0_SA_S7_, symObjAddr: 0x8508, symBinAddr: 0x10000CC14, symSize: 0xE8 }
  - { offsetInCU: 0x117B0, offset: 0x117B0, size: 0x8, addend: 0x0, symName: __ZNSt3__14swapB7v160006IP4FaceEEvRT_S4_, symObjAddr: 0x863C, symBinAddr: 0x10000CD48, symSize: 0x3C }
  - { offsetInCU: 0x11801, offset: 0x11801, size: 0x8, addend: 0x0, symName: __ZNSt3__125__debug_db_invalidate_allB7v160006INS_6vectorI4FaceNS_9allocatorIS2_EEEEEEvPT_, symObjAddr: 0x8740, symBinAddr: 0x10000CE4C, symSize: 0x10 }
  - { offsetInCU: 0x11832, offset: 0x11832, size: 0x8, addend: 0x0, symName: __ZNSt3__1neB7v160006IP4FaceS2_EEbRKNS_16reverse_iteratorIT_EERKNS3_IT0_EE, symObjAddr: 0x8750, symBinAddr: 0x10000CE5C, symSize: 0x48 }
  - { offsetInCU: 0x118A3, offset: 0x118A3, size: 0x8, addend: 0x0, symName: __ZNSt3__114__construct_atB7v160006I4FaceJS1_EPS1_EEPT_S4_DpOT0_, symObjAddr: 0x8798, symBinAddr: 0x10000CEA4, symSize: 0x40 }
  - { offsetInCU: 0x11913, offset: 0x11913, size: 0x8, addend: 0x0, symName: __ZNSt3__112__to_addressB7v160006INS_16reverse_iteratorIP4FaceEEvEENS_5decayIDTclsr19__to_address_helperIT_EE6__callclsr3stdE7declvalIRKS6_EEEEE4typeES8_, symObjAddr: 0x87D8, symBinAddr: 0x10000CEE4, symSize: 0x24 }
  - { offsetInCU: 0x11949, offset: 0x11949, size: 0x8, addend: 0x0, symName: __ZNSt3__14moveB7v160006INS_16reverse_iteratorIP4FaceEES4_EET0_T_S6_S5_, symObjAddr: 0x8844, symBinAddr: 0x10000CF50, symSize: 0x78 }
  - { offsetInCU: 0x119CC, offset: 0x119CC, size: 0x8, addend: 0x0, symName: __ZNSt3__16__moveB7v160006INS_17_ClassicAlgPolicyENS_16reverse_iteratorIP4FaceEES5_S5_EENS_4pairIT0_T2_EES7_T1_S8_, symObjAddr: 0x892C, symBinAddr: 0x10000D038, symSize: 0x64 }
  - { offsetInCU: 0x11A38, offset: 0x11A38, size: 0x8, addend: 0x0, symName: __ZNSt3__123__dispatch_copy_or_moveB7v160006INS_17_ClassicAlgPolicyENS_11__move_loopIS1_EENS_14__move_trivialENS_16reverse_iteratorIP4FaceEES8_S8_EENS_4pairIT2_T4_EESA_T3_SB_, symObjAddr: 0x8990, symBinAddr: 0x10000D09C, symSize: 0x7C }
  - { offsetInCU: 0x11AB6, offset: 0x11AB6, size: 0x8, addend: 0x0, symName: __ZNSt3__121__unwrap_and_dispatchB7v160006INS_10__overloadINS_11__move_loopINS_17_ClassicAlgPolicyEEENS_14__move_trivialEEENS_16reverse_iteratorIP4FaceEESA_SA_Li0EEENS_4pairIT0_T2_EESC_T1_SD_, symObjAddr: 0x8A0C, symBinAddr: 0x10000D118, symSize: 0x12C }
  - { offsetInCU: 0x11B46, offset: 0x11B46, size: 0x8, addend: 0x0, symName: __ZNSt3__114__unwrap_rangeB7v160006INS_16reverse_iteratorIP4FaceEES4_EENS_4pairIT0_S6_EET_S8_, symObjAddr: 0x8B38, symBinAddr: 0x10000D244, symSize: 0x84 }
  - { offsetInCU: 0x11CD9, offset: 0x11CD9, size: 0x8, addend: 0x0, symName: __ZNSt3__113__unwrap_iterB7v160006INS_16reverse_iteratorIP4FaceEENS_18__unwrap_iter_implIS4_Lb0EEELi0EEEDTclsrT0_8__unwrapclsr3stdE7declvalIT_EEEES8_, symObjAddr: 0x8C58, symBinAddr: 0x10000D364, symSize: 0x44 }
  - { offsetInCU: 0x11D1D, offset: 0x11D1D, size: 0x8, addend: 0x0, symName: __ZNSt3__19make_pairB7v160006INS_16reverse_iteratorIP4FaceEES4_EENS_4pairINS_18__unwrap_ref_decayIT_E4typeENS6_IT0_E4typeEEEOS7_OSA_, symObjAddr: 0x8C9C, symBinAddr: 0x10000D3A8, symSize: 0x38 }
  - { offsetInCU: 0x11D6C, offset: 0x11D6C, size: 0x8, addend: 0x0, symName: __ZNSt3__114__rewrap_rangeB7v160006INS_16reverse_iteratorIP4FaceEES4_EET_S5_T0_, symObjAddr: 0x8CD4, symBinAddr: 0x10000D3E0, symSize: 0x5C }
  - { offsetInCU: 0x11DB8, offset: 0x11DB8, size: 0x8, addend: 0x0, symName: __ZNSt3__113__rewrap_iterB7v160006INS_16reverse_iteratorIP4FaceEES4_NS_18__unwrap_iter_implIS4_Lb0EEEEET_S7_T0_, symObjAddr: 0x8D30, symBinAddr: 0x10000D43C, symSize: 0x88 }
  - { offsetInCU: 0x11EF2, offset: 0x11EF2, size: 0x8, addend: 0x0, symName: __ZNSt3__119__debug_db_insert_cB7v160006INS_6vectorIjNS_9allocatorIjEEEEEEvPT_, symObjAddr: 0x9148, symBinAddr: 0x10000D854, symSize: 0x10 }
  - { offsetInCU: 0x11F23, offset: 0x11F23, size: 0x8, addend: 0x0, symName: __ZNSt3__118__debug_db_erase_cB7v160006INS_6vectorIjNS_9allocatorIjEEEEEEvPT_, symObjAddr: 0x9404, symBinAddr: 0x10000DB10, symSize: 0x10 }
  - { offsetInCU: 0x11F54, offset: 0x11F54, size: 0x8, addend: 0x0, symName: __ZNSt3__112__to_addressB7v160006IjEEPT_S2_, symObjAddr: 0x9520, symBinAddr: 0x10000DC2C, symSize: 0x14 }
  - { offsetInCU: 0x11F89, offset: 0x11F89, size: 0x8, addend: 0x0, symName: __ZNSt3__119__debug_db_insert_cB7v160006INS_13unordered_mapINS_12basic_stringIcNS_11char_traitsIcEENS_9allocatorIcEEEEiNS_4hashIS7_EENS_8equal_toIS7_EENS5_INS_4pairIKS7_iEEEEEEEEvPT_, symObjAddr: 0x97AC, symBinAddr: 0x10000DEB8, symSize: 0x10 }
  - { offsetInCU: 0x11FBA, offset: 0x11FBA, size: 0x8, addend: 0x0, symName: __ZNSt3__118__debug_db_erase_cB7v160006INS_12__hash_tableINS_17__hash_value_typeINS_12basic_stringIcNS_11char_traitsIcEENS_9allocatorIcEEEEiEENS_22__unordered_map_hasherIS8_S9_NS_4hashIS8_EENS_8equal_toIS8_EELb1EEENS_21__unordered_map_equalIS8_S9_SE_SC_Lb1EEENS6_IS9_EEEEEEvPT_, symObjAddr: 0xA260, symBinAddr: 0x10000E96C, symSize: 0x10 }
  - { offsetInCU: 0x1201E, offset: 0x1201E, size: 0x8, addend: 0x0, symName: __ZNSt3__1eqB7v160006IP4FaceEEbRKNS_11__wrap_iterIT_EES7_, symObjAddr: 0xA53C, symBinAddr: 0x10000EC48, symSize: 0x48 }
  - { offsetInCU: 0x12061, offset: 0x12061, size: 0x8, addend: 0x0, symName: __ZNSt3__1neB7v160006ERKNS_21__hash_const_iteratorIPNS_11__hash_nodeINS_17__hash_value_typeINS_12basic_stringIcNS_11char_traitsIcEENS_9allocatorIcEEEEiEEPvEEEESF_, symObjAddr: 0xA7E8, symBinAddr: 0x10000EEF4, symSize: 0x34 }
  - { offsetInCU: 0x1209E, offset: 0x1209E, size: 0x8, addend: 0x0, symName: __ZNSt3__1eqB7v160006ERKNS_21__hash_const_iteratorIPNS_11__hash_nodeINS_17__hash_value_typeINS_12basic_stringIcNS_11char_traitsIcEENS_9allocatorIcEEEEiEEPvEEEESF_, symObjAddr: 0xAA08, symBinAddr: 0x10000F114, symSize: 0x30 }
  - { offsetInCU: 0x120DB, offset: 0x120DB, size: 0x8, addend: 0x0, symName: __ZNSt3__116__constrain_hashB7v160006Emm, symObjAddr: 0xAAB4, symBinAddr: 0x10000F1C0, symSize: 0x98 }
  - { offsetInCU: 0x12115, offset: 0x12115, size: 0x8, addend: 0x0, symName: __ZNSt3__116__do_string_hashB7v160006IPKcEEmT_S3_, symObjAddr: 0xACF4, symBinAddr: 0x10000F400, symSize: 0x3C }
  - { offsetInCU: 0x1215B, offset: 0x1215B, size: 0x8, addend: 0x0, symName: __ZNSt3__110__loadwordB7v160006ImEET_PKv, symObjAddr: 0xB6E8, symBinAddr: 0x10000FDF4, symSize: 0x20 }
  - { offsetInCU: 0x1219E, offset: 0x1219E, size: 0x8, addend: 0x0, symName: __ZNSt3__14swapB7v160006ImEEvRT_S2_, symObjAddr: 0xB8A4, symBinAddr: 0x10000FFB0, symSize: 0x3C }
  - { offsetInCU: 0x121EF, offset: 0x121EF, size: 0x8, addend: 0x0, symName: __ZNSt3__110__loadwordB7v160006IjEET_PKv, symObjAddr: 0xB934, symBinAddr: 0x100010040, symSize: 0x20 }
  - { offsetInCU: 0x12232, offset: 0x12232, size: 0x8, addend: 0x0, symName: __ZNSt3__1eqB7v160006INS_9allocatorIcEEEEbRKNS_12basic_stringIcNS_11char_traitsIcEET_EES9_, symObjAddr: 0xBC14, symBinAddr: 0x100010320, symSize: 0x148 }
  - { offsetInCU: 0x122A5, offset: 0x122A5, size: 0x8, addend: 0x0, symName: __ZNSt3__118__constexpr_memcmpB7v160006IcEEiPKT_S3_m, symObjAddr: 0xBDDC, symBinAddr: 0x1000104E8, symSize: 0x34 }
  - { offsetInCU: 0x122F6, offset: 0x122F6, size: 0x8, addend: 0x0, symName: __ZNSt3__1neB7v160006ERKNS_19__hash_map_iteratorINS_15__hash_iteratorIPNS_11__hash_nodeINS_17__hash_value_typeINS_12basic_stringIcNS_11char_traitsIcEENS_9allocatorIcEEEEiEEPvEEEEEESH_, symObjAddr: 0xBE74, symBinAddr: 0x100010580, symSize: 0x30 }
  - { offsetInCU: 0x12333, offset: 0x12333, size: 0x8, addend: 0x0, symName: __ZNSt3__1neB7v160006ERKNS_15__hash_iteratorIPNS_11__hash_nodeINS_17__hash_value_typeINS_12basic_stringIcNS_11char_traitsIcEENS_9allocatorIcEEEEiEEPvEEEESF_, symObjAddr: 0xC538, symBinAddr: 0x100010C44, symSize: 0x34 }
  - { offsetInCU: 0x12370, offset: 0x12370, size: 0x8, addend: 0x0, symName: __ZNSt3__1eqB7v160006ERKNS_15__hash_iteratorIPNS_11__hash_nodeINS_17__hash_value_typeINS_12basic_stringIcNS_11char_traitsIcEENS_9allocatorIcEEEEiEEPvEEEESF_, symObjAddr: 0xC56C, symBinAddr: 0x100010C78, symSize: 0x30 }
  - { offsetInCU: 0x12431, offset: 0x12431, size: 0x8, addend: 0x0, symName: __ZNSt3__116__is_hash_power2B7v160006Em, symObjAddr: 0xCF18, symBinAddr: 0x100011624, symSize: 0x50 }
  - { offsetInCU: 0x1245D, offset: 0x1245D, size: 0x8, addend: 0x0, symName: __ZNSt3__116__next_hash_pow2B7v160006Em, symObjAddr: 0xD414, symBinAddr: 0x100011B20, symSize: 0x6C }
  - { offsetInCU: 0x12489, offset: 0x12489, size: 0x8, addend: 0x0, symName: __ZNSt3__125__debug_db_invalidate_allB7v160006INS_12__hash_tableINS_17__hash_value_typeINS_12basic_stringIcNS_11char_traitsIcEENS_9allocatorIcEEEEiEENS_22__unordered_map_hasherIS8_S9_NS_4hashIS8_EENS_8equal_toIS8_EELb1EEENS_21__unordered_map_equalIS8_S9_SE_SC_Lb1EEENS6_IS9_EEEEEEvPT_, symObjAddr: 0xD480, symBinAddr: 0x100011B8C, symSize: 0x10 }
  - { offsetInCU: 0x124D6, offset: 0x124D6, size: 0x8, addend: 0x0, symName: __ZNSt3__112__libcpp_clzB7v160006Em, symObjAddr: 0xD614, symBinAddr: 0x100011D20, symSize: 0x1C }
  - { offsetInCU: 0x12502, offset: 0x12502, size: 0x8, addend: 0x0, symName: __ZNSt3__119__allocate_at_leastB7v160006INS_9allocatorIjEEEENS_19__allocation_resultINS_16allocator_traitsIT_E7pointerEEERS5_m, symObjAddr: 0xE02C, symBinAddr: 0x100012738, symSize: 0x40 }
  - { offsetInCU: 0x12545, offset: 0x12545, size: 0x8, addend: 0x0, symName: __ZNSt3__142__uninitialized_allocator_move_if_noexceptB7v160006INS_9allocatorIjEENS_16reverse_iteratorIPjEES5_jvEET1_RT_T0_S9_S6_, symObjAddr: 0xE20C, symBinAddr: 0x100012918, symSize: 0xE8 }
  - { offsetInCU: 0x125C2, offset: 0x125C2, size: 0x8, addend: 0x0, symName: __ZNSt3__14swapB7v160006IPjEEvRT_S3_, symObjAddr: 0xE340, symBinAddr: 0x100012A4C, symSize: 0x3C }
  - { offsetInCU: 0x12613, offset: 0x12613, size: 0x8, addend: 0x0, symName: __ZNSt3__125__debug_db_invalidate_allB7v160006INS_6vectorIjNS_9allocatorIjEEEEEEvPT_, symObjAddr: 0xE428, symBinAddr: 0x100012B34, symSize: 0x10 }
  - { offsetInCU: 0x12644, offset: 0x12644, size: 0x8, addend: 0x0, symName: __ZNSt3__1neB7v160006IPjS1_EEbRKNS_16reverse_iteratorIT_EERKNS2_IT0_EE, symObjAddr: 0xE438, symBinAddr: 0x100012B44, symSize: 0x48 }
  - { offsetInCU: 0x126B5, offset: 0x126B5, size: 0x8, addend: 0x0, symName: __ZNSt3__114__construct_atB7v160006IjJjEPjEEPT_S3_DpOT0_, symObjAddr: 0xE480, symBinAddr: 0x100012B8C, symSize: 0x2C }
  - { offsetInCU: 0x12725, offset: 0x12725, size: 0x8, addend: 0x0, symName: __ZNSt3__112__to_addressB7v160006INS_16reverse_iteratorIPjEEvEENS_5decayIDTclsr19__to_address_helperIT_EE6__callclsr3stdE7declvalIRKS5_EEEEE4typeES7_, symObjAddr: 0xE4AC, symBinAddr: 0x100012BB8, symSize: 0x24 }
  - { offsetInCU: 0x1275B, offset: 0x1275B, size: 0x8, addend: 0x0, symName: __ZNSt3__14moveB7v160006INS_16reverse_iteratorIPjEES3_EET0_T_S5_S4_, symObjAddr: 0xE518, symBinAddr: 0x100012C24, symSize: 0x78 }
  - { offsetInCU: 0x127DE, offset: 0x127DE, size: 0x8, addend: 0x0, symName: __ZNSt3__16__moveB7v160006INS_17_ClassicAlgPolicyENS_16reverse_iteratorIPjEES4_S4_EENS_4pairIT0_T2_EES6_T1_S7_, symObjAddr: 0xE600, symBinAddr: 0x100012D0C, symSize: 0x64 }
  - { offsetInCU: 0x1284A, offset: 0x1284A, size: 0x8, addend: 0x0, symName: __ZNSt3__123__dispatch_copy_or_moveB7v160006INS_17_ClassicAlgPolicyENS_11__move_loopIS1_EENS_14__move_trivialENS_16reverse_iteratorIPjEES7_S7_EENS_4pairIT2_T4_EES9_T3_SA_, symObjAddr: 0xE664, symBinAddr: 0x100012D70, symSize: 0x7C }
  - { offsetInCU: 0x128C8, offset: 0x128C8, size: 0x8, addend: 0x0, symName: __ZNSt3__121__unwrap_and_dispatchB7v160006INS_10__overloadINS_11__move_loopINS_17_ClassicAlgPolicyEEENS_14__move_trivialEEENS_16reverse_iteratorIPjEES9_S9_Li0EEENS_4pairIT0_T2_EESB_T1_SC_, symObjAddr: 0xE6E0, symBinAddr: 0x100012DEC, symSize: 0x12C }
  - { offsetInCU: 0x12958, offset: 0x12958, size: 0x8, addend: 0x0, symName: __ZNSt3__114__unwrap_rangeB7v160006INS_16reverse_iteratorIPjEES3_EENS_4pairIT0_S5_EET_S7_, symObjAddr: 0xE80C, symBinAddr: 0x100012F18, symSize: 0x84 }
  - { offsetInCU: 0x12A51, offset: 0x12A51, size: 0x8, addend: 0x0, symName: __ZNSt3__113__unwrap_iterB7v160006INS_16reverse_iteratorIPjEENS_18__unwrap_iter_implIS3_Lb0EEELi0EEEDTclsrT0_8__unwrapclsr3stdE7declvalIT_EEEES7_, symObjAddr: 0xE930, symBinAddr: 0x10001303C, symSize: 0x44 }
  - { offsetInCU: 0x12A95, offset: 0x12A95, size: 0x8, addend: 0x0, symName: __ZNSt3__19make_pairB7v160006INS_16reverse_iteratorIPjEES3_EENS_4pairINS_18__unwrap_ref_decayIT_E4typeENS5_IT0_E4typeEEEOS6_OS9_, symObjAddr: 0xE974, symBinAddr: 0x100013080, symSize: 0x38 }
  - { offsetInCU: 0x12AE4, offset: 0x12AE4, size: 0x8, addend: 0x0, symName: __ZNSt3__114__rewrap_rangeB7v160006INS_16reverse_iteratorIPjEES3_EET_S4_T0_, symObjAddr: 0xE9AC, symBinAddr: 0x1000130B8, symSize: 0x5C }
  - { offsetInCU: 0x12B30, offset: 0x12B30, size: 0x8, addend: 0x0, symName: __ZNSt3__113__rewrap_iterB7v160006INS_16reverse_iteratorIPjEES3_NS_18__unwrap_iter_implIS3_Lb0EEEEET_S6_T0_, symObjAddr: 0xEA08, symBinAddr: 0x100013114, symSize: 0x88 }
  - { offsetInCU: 0x12E99, offset: 0x12E99, size: 0x8, addend: 0x0, symName: __ZSt28__throw_bad_array_new_lengthB7v160006v, symObjAddr: 0x4870, symBinAddr: 0x100008F7C, symSize: 0x34 }
  - { offsetInCU: 0x1379B, offset: 0x1379B, size: 0x8, addend: 0x0, symName: __ZNSt3__16vectorIN3glm3vecILi3EfLNS1_9qualifierE0EEENS_9allocatorIS4_EEE26__swap_out_circular_bufferERNS_14__split_bufferIS4_RS6_EE, symObjAddr: 0x5514, symBinAddr: 0x100009C20, symSize: 0x118 }
  - { offsetInCU: 0x1382F, offset: 0x1382F, size: 0x8, addend: 0x0, symName: __ZNSt3__16vectorIN3glm3vecILi2EfLNS1_9qualifierE0EEENS_9allocatorIS4_EEE26__swap_out_circular_bufferERNS_14__split_bufferIS4_RS6_EE, symObjAddr: 0x6B88, symBinAddr: 0x10000B294, symSize: 0x118 }
  - { offsetInCU: 0x138C3, offset: 0x138C3, size: 0x8, addend: 0x0, symName: __ZNSt3__16vectorI4FaceNS_9allocatorIS1_EEE26__swap_out_circular_bufferERNS_14__split_bufferIS1_RS3_EE, symObjAddr: 0x7F8C, symBinAddr: 0x10000C698, symSize: 0x118 }
  - { offsetInCU: 0x1401B, offset: 0x1401B, size: 0x8, addend: 0x0, symName: __ZNSt3__16vectorIjNS_9allocatorIjEEE26__swap_out_circular_bufferERNS_14__split_bufferIjRS2_EE, symObjAddr: 0xDCB0, symBinAddr: 0x1000123BC, symSize: 0x118 }
  - { offsetInCU: 0x16364, offset: 0x16364, size: 0x8, addend: 0x0, symName: __ZN4MeshC2Ev, symObjAddr: 0x0, symBinAddr: 0x10000470C, symSize: 0x30 }
  - { offsetInCU: 0x16390, offset: 0x16390, size: 0x8, addend: 0x0, symName: __ZN4MeshC1Ev, symObjAddr: 0x30, symBinAddr: 0x10000473C, symSize: 0x2C }
  - { offsetInCU: 0x163BC, offset: 0x163BC, size: 0x8, addend: 0x0, symName: __ZN4MeshD2Ev, symObjAddr: 0x5C, symBinAddr: 0x100004768, symSize: 0x2C }
  - { offsetInCU: 0x163E8, offset: 0x163E8, size: 0x8, addend: 0x0, symName: __ZN4Mesh9ClearMeshEv, symObjAddr: 0x88, symBinAddr: 0x100004794, symSize: 0x160 }
  - { offsetInCU: 0x16410, offset: 0x16410, size: 0x8, addend: 0x0, symName: __ZN4MeshD1Ev, symObjAddr: 0x1E8, symBinAddr: 0x1000048F4, symSize: 0x2C }
  - { offsetInCU: 0x1643C, offset: 0x1643C, size: 0x8, addend: 0x0, symName: __ZN4Mesh10CreateMeshEPfPjjj, symObjAddr: 0x214, symBinAddr: 0x100004920, symSize: 0x1FC }
  - { offsetInCU: 0x1649C, offset: 0x1649C, size: 0x8, addend: 0x0, symName: __ZN4Mesh10RenderMeshEv, symObjAddr: 0x410, symBinAddr: 0x100004B1C, symSize: 0xA0 }
  - { offsetInCU: 0x164C4, offset: 0x164C4, size: 0x8, addend: 0x0, symName: __ZN4Mesh17CreateMeshFromOBJEPKc, symObjAddr: 0x4B0, symBinAddr: 0x100004BBC, symSize: 0xE78 }
  - { offsetInCU: 0x166E2, offset: 0x166E2, size: 0x8, addend: 0x0, symName: __ZNSt3__16vectorIN3glm3vecILi3EfLNS1_9qualifierE0EEENS_9allocatorIS4_EEEC1B7v160006Ev, symObjAddr: 0x1328, symBinAddr: 0x100005A34, symSize: 0x2C }
  - { offsetInCU: 0x1670C, offset: 0x1670C, size: 0x8, addend: 0x0, symName: __ZNSt3__16vectorIN3glm3vecILi2EfLNS1_9qualifierE0EEENS_9allocatorIS4_EEEC1B7v160006Ev, symObjAddr: 0x1354, symBinAddr: 0x100005A60, symSize: 0x2C }
  - { offsetInCU: 0x16736, offset: 0x16736, size: 0x8, addend: 0x0, symName: __ZNSt3__16vectorI4FaceNS_9allocatorIS1_EEEC1B7v160006Ev, symObjAddr: 0x1380, symBinAddr: 0x100005A8C, symSize: 0x2C }
  - { offsetInCU: 0x16879, offset: 0x16879, size: 0x8, addend: 0x0, symName: __ZNSt3__114basic_ifstreamIcNS_11char_traitsIcEEEC1EPKcj, symObjAddr: 0x13AC, symBinAddr: 0x100005AB8, symSize: 0x17C }
  - { offsetInCU: 0x168C3, offset: 0x168C3, size: 0x8, addend: 0x0, symName: __ZNKSt3__114basic_ifstreamIcNS_11char_traitsIcEEE7is_openEv, symObjAddr: 0x1528, symBinAddr: 0x100005C34, symSize: 0x2C }
  - { offsetInCU: 0x168EB, offset: 0x168EB, size: 0x8, addend: 0x0, symName: __ZNSt3__113basic_ostreamIcNS_11char_traitsIcEEElsB7v160006EPFRS3_S4_E, symObjAddr: 0x159C, symBinAddr: 0x100005CA8, symSize: 0x2C }
  - { offsetInCU: 0x1691F, offset: 0x1691F, size: 0x8, addend: 0x0, symName: __ZNSt3__112basic_stringIcNS_11char_traitsIcEENS_9allocatorIcEEEC1B7v160006Ev, symObjAddr: 0x1620, symBinAddr: 0x100005D2C, symSize: 0x2C }
  - { offsetInCU: 0x16949, offset: 0x16949, size: 0x8, addend: 0x0, symName: __ZNKSt3__19basic_iosIcNS_11char_traitsIcEEEcvPvB7v160006Ev, symObjAddr: 0x16A8, symBinAddr: 0x100005DB4, symSize: 0x4C }
  - { offsetInCU: 0x1696F, offset: 0x1696F, size: 0x8, addend: 0x0, symName: __ZNKSt3__112basic_stringIcNS_11char_traitsIcEENS_9allocatorIcEEE6substrB7v160006Emm, symObjAddr: 0x17B4, symBinAddr: 0x100005EC0, symSize: 0x68 }
  - { offsetInCU: 0x169B3, offset: 0x169B3, size: 0x8, addend: 0x0, symName: __ZN3glm3vecILi3EfLNS_9qualifierE0EEC1Ev, symObjAddr: 0x181C, symBinAddr: 0x100005F28, symSize: 0x2C }
  - { offsetInCU: 0x169DF, offset: 0x169DF, size: 0x8, addend: 0x0, symName: __ZNKSt3__112basic_stringIcNS_11char_traitsIcEENS_9allocatorIcEEE5c_strB7v160006Ev, symObjAddr: 0x1848, symBinAddr: 0x100005F54, symSize: 0x24 }
  - { offsetInCU: 0x16A05, offset: 0x16A05, size: 0x8, addend: 0x0, symName: __ZNSt3__16vectorIN3glm3vecILi3EfLNS1_9qualifierE0EEENS_9allocatorIS4_EEE9push_backB7v160006ERKS4_, symObjAddr: 0x186C, symBinAddr: 0x100005F78, symSize: 0x6C }
  - { offsetInCU: 0x16A3C, offset: 0x16A3C, size: 0x8, addend: 0x0, symName: __ZN3glm3vecILi2EfLNS_9qualifierE0EEC1Ev, symObjAddr: 0x18D8, symBinAddr: 0x100005FE4, symSize: 0x2C }
  - { offsetInCU: 0x16A68, offset: 0x16A68, size: 0x8, addend: 0x0, symName: __ZNSt3__16vectorIN3glm3vecILi2EfLNS1_9qualifierE0EEENS_9allocatorIS4_EEE9push_backB7v160006ERKS4_, symObjAddr: 0x1904, symBinAddr: 0x100006010, symSize: 0x6C }
  - { offsetInCU: 0x16A9F, offset: 0x16A9F, size: 0x8, addend: 0x0, symName: __ZNSt3__16vectorI4FaceNS_9allocatorIS1_EEE9push_backB7v160006ERKS1_, symObjAddr: 0x1970, symBinAddr: 0x10000607C, symSize: 0x6C }
  - { offsetInCU: 0x16AD6, offset: 0x16AD6, size: 0x8, addend: 0x0, symName: __ZNSt3__114basic_ifstreamIcNS_11char_traitsIcEEE5closeEv, symObjAddr: 0x19DC, symBinAddr: 0x1000060E8, symSize: 0x58 }
  - { offsetInCU: 0x16AFE, offset: 0x16AFE, size: 0x8, addend: 0x0, symName: __ZNKSt3__16vectorIN3glm3vecILi3EfLNS1_9qualifierE0EEENS_9allocatorIS4_EEE4sizeB7v160006Ev, symObjAddr: 0x1A34, symBinAddr: 0x100006140, symSize: 0x28 }
  - { offsetInCU: 0x16B24, offset: 0x16B24, size: 0x8, addend: 0x0, symName: __ZNSt3__16vectorIjNS_9allocatorIjEEEC1B7v160006Ev, symObjAddr: 0x1A5C, symBinAddr: 0x100006168, symSize: 0x2C }
  - { offsetInCU: 0x16B4E, offset: 0x16B4E, size: 0x8, addend: 0x0, symName: __ZNKSt3__16vectorI4FaceNS_9allocatorIS1_EEE4sizeB7v160006Ev, symObjAddr: 0x1A88, symBinAddr: 0x100006194, symSize: 0x28 }
  - { offsetInCU: 0x16B74, offset: 0x16B74, size: 0x8, addend: 0x0, symName: __ZNSt3__113unordered_mapINS_12basic_stringIcNS_11char_traitsIcEENS_9allocatorIcEEEEiNS_4hashIS6_EENS_8equal_toIS6_EENS4_INS_4pairIKS6_iEEEEEC1B7v160006Ev, symObjAddr: 0x1AB0, symBinAddr: 0x1000061BC, symSize: 0x2C }
  - { offsetInCU: 0x16B9E, offset: 0x16B9E, size: 0x8, addend: 0x0, symName: __ZNSt3__16vectorI4FaceNS_9allocatorIS1_EEE5beginB7v160006Ev, symObjAddr: 0x1ADC, symBinAddr: 0x1000061E8, symSize: 0x30 }
  - { offsetInCU: 0x16BC6, offset: 0x16BC6, size: 0x8, addend: 0x0, symName: __ZNSt3__16vectorI4FaceNS_9allocatorIS1_EEE3endB7v160006Ev, symObjAddr: 0x1B0C, symBinAddr: 0x100006218, symSize: 0x30 }
  - { offsetInCU: 0x16BEE, offset: 0x16BEE, size: 0x8, addend: 0x0, symName: __ZNKSt3__111__wrap_iterIP4FaceEdeB7v160006Ev, symObjAddr: 0x1B70, symBinAddr: 0x10000627C, symSize: 0x18 }
  - { offsetInCU: 0x16C14, offset: 0x16C14, size: 0x8, addend: 0x0, symName: __ZNSt3__16vectorIN3glm3vecILi3EfLNS1_9qualifierE0EEENS_9allocatorIS4_EEEixB7v160006Em, symObjAddr: 0x1B88, symBinAddr: 0x100006294, symSize: 0x2C }
  - { offsetInCU: 0x16C4B, offset: 0x16C4B, size: 0x8, addend: 0x0, symName: __ZN3glm3vecILi3EfLNS_9qualifierE0EEC1ERKS2_, symObjAddr: 0x1BB4, symBinAddr: 0x1000062C0, symSize: 0x34 }
  - { offsetInCU: 0x16C85, offset: 0x16C85, size: 0x8, addend: 0x0, symName: __ZNSt3__16vectorIN3glm3vecILi2EfLNS1_9qualifierE0EEENS_9allocatorIS4_EEEixB7v160006Em, symObjAddr: 0x1BE8, symBinAddr: 0x1000062F4, symSize: 0x24 }
  - { offsetInCU: 0x16CBC, offset: 0x16CBC, size: 0x8, addend: 0x0, symName: __ZN3glm3vecILi2EfLNS_9qualifierE0EEC1ERKS2_, symObjAddr: 0x1C0C, symBinAddr: 0x100006318, symSize: 0x34 }
  - { offsetInCU: 0x16D58, offset: 0x16D58, size: 0x8, addend: 0x0, symName: __ZNSt3__118basic_stringstreamIcNS_11char_traitsIcEENS_9allocatorIcEEEC1B7v160006Ev, symObjAddr: 0x1C40, symBinAddr: 0x10000634C, symSize: 0x110 }
  - { offsetInCU: 0x16D82, offset: 0x16D82, size: 0x8, addend: 0x0, symName: __ZNKSt3__118basic_stringstreamIcNS_11char_traitsIcEENS_9allocatorIcEEE3strB7v160006Ev, symObjAddr: 0x1D50, symBinAddr: 0x10000645C, symSize: 0x30 }
  - { offsetInCU: 0x16DA8, offset: 0x16DA8, size: 0x8, addend: 0x0, symName: __ZNKSt3__113unordered_mapINS_12basic_stringIcNS_11char_traitsIcEENS_9allocatorIcEEEEiNS_4hashIS6_EENS_8equal_toIS6_EENS4_INS_4pairIKS6_iEEEEE5countB7v160006ERSC_, symObjAddr: 0x1D80, symBinAddr: 0x10000648C, symSize: 0x2C }
  - { offsetInCU: 0x16DDD, offset: 0x16DDD, size: 0x8, addend: 0x0, symName: __ZNSt3__16vectorIjNS_9allocatorIjEEE9push_backB7v160006EOj, symObjAddr: 0x1DAC, symBinAddr: 0x1000064B8, symSize: 0x6C }
  - { offsetInCU: 0x16E14, offset: 0x16E14, size: 0x8, addend: 0x0, symName: __ZNSt3__113unordered_mapINS_12basic_stringIcNS_11char_traitsIcEENS_9allocatorIcEEEEiNS_4hashIS6_EENS_8equal_toIS6_EENS4_INS_4pairIKS6_iEEEEEixERSC_, symObjAddr: 0x1E18, symBinAddr: 0x100006524, symSize: 0x128 }
  - { offsetInCU: 0x16E7E, offset: 0x16E7E, size: 0x8, addend: 0x0, symName: __ZNSt3__118basic_stringstreamIcNS_11char_traitsIcEENS_9allocatorIcEEED1Ev, symObjAddr: 0x1F4C, symBinAddr: 0x100006658, symSize: 0x70 }
  - { offsetInCU: 0x16EAB, offset: 0x16EAB, size: 0x8, addend: 0x0, symName: __ZNKSt3__16vectorIjNS_9allocatorIjEEE4sizeB7v160006Ev, symObjAddr: 0x1FBC, symBinAddr: 0x1000066C8, symSize: 0x28 }
  - { offsetInCU: 0x16ED1, offset: 0x16ED1, size: 0x8, addend: 0x0, symName: __ZNSt3__111__wrap_iterIP4FaceEppB7v160006Ev, symObjAddr: 0x1FE4, symBinAddr: 0x1000066F0, symSize: 0x20 }
  - { offsetInCU: 0x16EF7, offset: 0x16EF7, size: 0x8, addend: 0x0, symName: __ZNKSt3__16vectorIN3glm3vecILi2EfLNS1_9qualifierE0EEENS_9allocatorIS4_EEE4sizeB7v160006Ev, symObjAddr: 0x2004, symBinAddr: 0x100006710, symSize: 0x28 }
  - { offsetInCU: 0x16F1D, offset: 0x16F1D, size: 0x8, addend: 0x0, symName: __ZNSt3__16vectorIjNS_9allocatorIjEEEixB7v160006Em, symObjAddr: 0x202C, symBinAddr: 0x100006738, symSize: 0x24 }
  - { offsetInCU: 0x16F54, offset: 0x16F54, size: 0x8, addend: 0x0, symName: __ZNSt3__113unordered_mapINS_12basic_stringIcNS_11char_traitsIcEENS_9allocatorIcEEEEiNS_4hashIS6_EENS_8equal_toIS6_EENS4_INS_4pairIKS6_iEEEEED1B7v160006Ev, symObjAddr: 0x2050, symBinAddr: 0x10000675C, symSize: 0x2C }
  - { offsetInCU: 0x16F7E, offset: 0x16F7E, size: 0x8, addend: 0x0, symName: __ZNSt3__16vectorIjNS_9allocatorIjEEED1B7v160006Ev, symObjAddr: 0x207C, symBinAddr: 0x100006788, symSize: 0x2C }
  - { offsetInCU: 0x16FAD, offset: 0x16FAD, size: 0x8, addend: 0x0, symName: __ZNSt3__114basic_ifstreamIcNS_11char_traitsIcEEED1Ev, symObjAddr: 0x20A8, symBinAddr: 0x1000067B4, symSize: 0x70 }
  - { offsetInCU: 0x16FDA, offset: 0x16FDA, size: 0x8, addend: 0x0, symName: __ZNSt3__16vectorI4FaceNS_9allocatorIS1_EEED1B7v160006Ev, symObjAddr: 0x2118, symBinAddr: 0x100006824, symSize: 0x2C }
  - { offsetInCU: 0x17004, offset: 0x17004, size: 0x8, addend: 0x0, symName: __ZNSt3__16vectorIN3glm3vecILi3EfLNS1_9qualifierE0EEENS_9allocatorIS4_EEED1B7v160006Ev, symObjAddr: 0x2144, symBinAddr: 0x100006850, symSize: 0x2C }
  - { offsetInCU: 0x1702E, offset: 0x1702E, size: 0x8, addend: 0x0, symName: __ZNSt3__16vectorIN3glm3vecILi2EfLNS1_9qualifierE0EEENS_9allocatorIS4_EEED1B7v160006Ev, symObjAddr: 0x2170, symBinAddr: 0x10000687C, symSize: 0x2C }
  - { offsetInCU: 0x17058, offset: 0x17058, size: 0x8, addend: 0x0, symName: __ZNSt3__118basic_stringstreamIcNS_11char_traitsIcEENS_9allocatorIcEEED2Ev, symObjAddr: 0x219C, symBinAddr: 0x1000068A8, symSize: 0xA4 }
  - { offsetInCU: 0x17092, offset: 0x17092, size: 0x8, addend: 0x0, symName: __ZThn16_NSt3__118basic_stringstreamIcNS_11char_traitsIcEENS_9allocatorIcEEED1Ev, symObjAddr: 0x2240, symBinAddr: 0x10000694C, symSize: 0x1C }
  - { offsetInCU: 0x170A9, offset: 0x170A9, size: 0x8, addend: 0x0, symName: __ZTv0_n24_NSt3__118basic_stringstreamIcNS_11char_traitsIcEENS_9allocatorIcEEED1Ev, symObjAddr: 0x225C, symBinAddr: 0x100006968, symSize: 0x28 }
  - { offsetInCU: 0x170C5, offset: 0x170C5, size: 0x8, addend: 0x0, symName: __ZNSt3__115basic_stringbufIcNS_11char_traitsIcEENS_9allocatorIcEEED1Ev, symObjAddr: 0x2284, symBinAddr: 0x100006990, symSize: 0x2C }
  - { offsetInCU: 0x170F2, offset: 0x170F2, size: 0x8, addend: 0x0, symName: __ZNSt3__115basic_stringbufIcNS_11char_traitsIcEENS_9allocatorIcEEED2Ev, symObjAddr: 0x22B0, symBinAddr: 0x1000069BC, symSize: 0x78 }
  - { offsetInCU: 0x1711F, offset: 0x1711F, size: 0x8, addend: 0x0, symName: __ZNSt3__114basic_ifstreamIcNS_11char_traitsIcEEED2Ev, symObjAddr: 0x2328, symBinAddr: 0x100006A34, symSize: 0x9C }
  - { offsetInCU: 0x17159, offset: 0x17159, size: 0x8, addend: 0x0, symName: __ZTv0_n24_NSt3__114basic_ifstreamIcNS_11char_traitsIcEEED1Ev, symObjAddr: 0x23C4, symBinAddr: 0x100006AD0, symSize: 0x28 }
  - { offsetInCU: 0x17170, offset: 0x17170, size: 0x8, addend: 0x0, symName: __ZN3glm3vecILi2EfLNS_9qualifierE0EEC2ERKS2_, symObjAddr: 0x23EC, symBinAddr: 0x100006AF8, symSize: 0x30 }
  - { offsetInCU: 0x171AA, offset: 0x171AA, size: 0x8, addend: 0x0, symName: __ZNSt3__16vectorIN3glm3vecILi3EfLNS1_9qualifierE0EEENS_9allocatorIS4_EEEC2B7v160006Ev, symObjAddr: 0x241C, symBinAddr: 0x100006B28, symSize: 0x4C }
  - { offsetInCU: 0x171E0, offset: 0x171E0, size: 0x8, addend: 0x0, symName: __ZNSt3__117__compressed_pairIPN3glm3vecILi3EfLNS1_9qualifierE0EEENS_9allocatorIS4_EEEC1B7v160006IDnNS_18__default_init_tagEEEOT_OT0_, symObjAddr: 0x2468, symBinAddr: 0x100006B74, symSize: 0x3C }
  - { offsetInCU: 0x17238, offset: 0x17238, size: 0x8, addend: 0x0, symName: __ZNSt3__117__compressed_pairIPN3glm3vecILi3EfLNS1_9qualifierE0EEENS_9allocatorIS4_EEEC2B7v160006IDnNS_18__default_init_tagEEEOT_OT0_, symObjAddr: 0x24B4, symBinAddr: 0x100006BC0, symSize: 0x40 }
  - { offsetInCU: 0x17290, offset: 0x17290, size: 0x8, addend: 0x0, symName: __ZNSt3__122__compressed_pair_elemIPN3glm3vecILi3EfLNS1_9qualifierE0EEELi0ELb0EEC2B7v160006IDnvEEOT_, symObjAddr: 0x24F4, symBinAddr: 0x100006C00, symSize: 0x1C }
  - { offsetInCU: 0x172D2, offset: 0x172D2, size: 0x8, addend: 0x0, symName: __ZNSt3__122__compressed_pair_elemINS_9allocatorIN3glm3vecILi3EfLNS2_9qualifierE0EEEEELi1ELb1EEC2B7v160006ENS_18__default_init_tagE, symObjAddr: 0x2510, symBinAddr: 0x100006C1C, symSize: 0x2C }
  - { offsetInCU: 0x17307, offset: 0x17307, size: 0x8, addend: 0x0, symName: __ZNSt3__19allocatorIN3glm3vecILi3EfLNS1_9qualifierE0EEEEC2B7v160006Ev, symObjAddr: 0x253C, symBinAddr: 0x100006C48, symSize: 0x2C }
  - { offsetInCU: 0x17331, offset: 0x17331, size: 0x8, addend: 0x0, symName: __ZNSt3__116__non_trivial_ifILb1ENS_9allocatorIN3glm3vecILi3EfLNS2_9qualifierE0EEEEEEC2B7v160006Ev, symObjAddr: 0x2568, symBinAddr: 0x100006C74, symSize: 0x14 }
  - { offsetInCU: 0x1735B, offset: 0x1735B, size: 0x8, addend: 0x0, symName: __ZNSt3__16vectorIN3glm3vecILi3EfLNS1_9qualifierE0EEENS_9allocatorIS4_EEED2B7v160006Ev, symObjAddr: 0x257C, symBinAddr: 0x100006C88, symSize: 0x3C }
  - { offsetInCU: 0x17385, offset: 0x17385, size: 0x8, addend: 0x0, symName: __ZNSt3__16vectorIN3glm3vecILi3EfLNS1_9qualifierE0EEENS_9allocatorIS4_EEE16__destroy_vectorC1ERS7_, symObjAddr: 0x25B8, symBinAddr: 0x100006CC4, symSize: 0x34 }
  - { offsetInCU: 0x173BE, offset: 0x173BE, size: 0x8, addend: 0x0, symName: __ZNSt3__16vectorIN3glm3vecILi3EfLNS1_9qualifierE0EEENS_9allocatorIS4_EEE16__destroy_vectorclB7v160006Ev, symObjAddr: 0x25EC, symBinAddr: 0x100006CF8, symSize: 0x9C }
  - { offsetInCU: 0x173E4, offset: 0x173E4, size: 0x8, addend: 0x0, symName: __ZNSt3__16vectorIN3glm3vecILi3EfLNS1_9qualifierE0EEENS_9allocatorIS4_EEE16__destroy_vectorC2ERS7_, symObjAddr: 0x2688, symBinAddr: 0x100006D94, symSize: 0x20 }
  - { offsetInCU: 0x1741D, offset: 0x1741D, size: 0x8, addend: 0x0, symName: __ZNKSt3__16vectorIN3glm3vecILi3EfLNS1_9qualifierE0EEENS_9allocatorIS4_EEE17__annotate_deleteB7v160006Ev, symObjAddr: 0x26A8, symBinAddr: 0x100006DB4, symSize: 0xD4 }
  - { offsetInCU: 0x17443, offset: 0x17443, size: 0x8, addend: 0x0, symName: __ZNSt3__16vectorIN3glm3vecILi3EfLNS1_9qualifierE0EEENS_9allocatorIS4_EEE7__clearB7v160006Ev, symObjAddr: 0x278C, symBinAddr: 0x100006E98, symSize: 0x28 }
  - { offsetInCU: 0x17469, offset: 0x17469, size: 0x8, addend: 0x0, symName: __ZNSt3__116allocator_traitsINS_9allocatorIN3glm3vecILi3EfLNS2_9qualifierE0EEEEEE10deallocateB7v160006ERS6_PS5_m, symObjAddr: 0x27B4, symBinAddr: 0x100006EC0, symSize: 0x34 }
  - { offsetInCU: 0x174AB, offset: 0x174AB, size: 0x8, addend: 0x0, symName: __ZNSt3__16vectorIN3glm3vecILi3EfLNS1_9qualifierE0EEENS_9allocatorIS4_EEE7__allocB7v160006Ev, symObjAddr: 0x27E8, symBinAddr: 0x100006EF4, symSize: 0x28 }
  - { offsetInCU: 0x174D1, offset: 0x174D1, size: 0x8, addend: 0x0, symName: __ZNKSt3__16vectorIN3glm3vecILi3EfLNS1_9qualifierE0EEENS_9allocatorIS4_EEE8capacityB7v160006Ev, symObjAddr: 0x2810, symBinAddr: 0x100006F1C, symSize: 0x40 }
  - { offsetInCU: 0x174F7, offset: 0x174F7, size: 0x8, addend: 0x0, symName: __ZNKSt3__16vectorIN3glm3vecILi3EfLNS1_9qualifierE0EEENS_9allocatorIS4_EEE31__annotate_contiguous_containerB7v160006EPKvS9_S9_S9_, symObjAddr: 0x2850, symBinAddr: 0x100006F5C, symSize: 0x20 }
  - { offsetInCU: 0x17549, offset: 0x17549, size: 0x8, addend: 0x0, symName: __ZNKSt3__16vectorIN3glm3vecILi3EfLNS1_9qualifierE0EEENS_9allocatorIS4_EEE4dataB7v160006Ev, symObjAddr: 0x2870, symBinAddr: 0x100006F7C, symSize: 0x28 }
  - { offsetInCU: 0x1756F, offset: 0x1756F, size: 0x8, addend: 0x0, symName: __ZNSt3__16vectorIN3glm3vecILi3EfLNS1_9qualifierE0EEENS_9allocatorIS4_EEE22__base_destruct_at_endB7v160006EPS4_, symObjAddr: 0x28AC, symBinAddr: 0x100006FB8, symSize: 0xA0 }
  - { offsetInCU: 0x175B3, offset: 0x175B3, size: 0x8, addend: 0x0, symName: __ZNSt3__116allocator_traitsINS_9allocatorIN3glm3vecILi3EfLNS2_9qualifierE0EEEEEE7destroyB7v160006IS5_vEEvRS6_PT_, symObjAddr: 0x294C, symBinAddr: 0x100007058, symSize: 0x2C }
  - { offsetInCU: 0x175F0, offset: 0x175F0, size: 0x8, addend: 0x0, symName: __ZNSt3__19allocatorIN3glm3vecILi3EfLNS1_9qualifierE0EEEE7destroyB7v160006EPS4_, symObjAddr: 0x2978, symBinAddr: 0x100007084, symSize: 0x14 }
  - { offsetInCU: 0x17624, offset: 0x17624, size: 0x8, addend: 0x0, symName: __ZNSt3__19allocatorIN3glm3vecILi3EfLNS1_9qualifierE0EEEE10deallocateB7v160006EPS4_m, symObjAddr: 0x298C, symBinAddr: 0x100007098, symSize: 0x74 }
  - { offsetInCU: 0x17666, offset: 0x17666, size: 0x8, addend: 0x0, symName: __ZNSt3__117__compressed_pairIPN3glm3vecILi3EfLNS1_9qualifierE0EEENS_9allocatorIS4_EEE6secondB7v160006Ev, symObjAddr: 0x2A88, symBinAddr: 0x100007194, symSize: 0x24 }
  - { offsetInCU: 0x1768C, offset: 0x1768C, size: 0x8, addend: 0x0, symName: __ZNSt3__122__compressed_pair_elemINS_9allocatorIN3glm3vecILi3EfLNS2_9qualifierE0EEEEELi1ELb1EE5__getB7v160006Ev, symObjAddr: 0x2AAC, symBinAddr: 0x1000071B8, symSize: 0x14 }
  - { offsetInCU: 0x176B2, offset: 0x176B2, size: 0x8, addend: 0x0, symName: __ZNKSt3__16vectorIN3glm3vecILi3EfLNS1_9qualifierE0EEENS_9allocatorIS4_EEE9__end_capB7v160006Ev, symObjAddr: 0x2AC0, symBinAddr: 0x1000071CC, symSize: 0x28 }
  - { offsetInCU: 0x176D8, offset: 0x176D8, size: 0x8, addend: 0x0, symName: __ZNKSt3__117__compressed_pairIPN3glm3vecILi3EfLNS1_9qualifierE0EEENS_9allocatorIS4_EEE5firstB7v160006Ev, symObjAddr: 0x2AE8, symBinAddr: 0x1000071F4, symSize: 0x24 }
  - { offsetInCU: 0x176FE, offset: 0x176FE, size: 0x8, addend: 0x0, symName: __ZNKSt3__122__compressed_pair_elemIPN3glm3vecILi3EfLNS1_9qualifierE0EEELi0ELb0EE5__getB7v160006Ev, symObjAddr: 0x2B0C, symBinAddr: 0x100007218, symSize: 0x14 }
  - { offsetInCU: 0x17724, offset: 0x17724, size: 0x8, addend: 0x0, symName: __ZNSt3__16vectorIN3glm3vecILi2EfLNS1_9qualifierE0EEENS_9allocatorIS4_EEEC2B7v160006Ev, symObjAddr: 0x2B20, symBinAddr: 0x10000722C, symSize: 0x4C }
  - { offsetInCU: 0x1774E, offset: 0x1774E, size: 0x8, addend: 0x0, symName: __ZNSt3__117__compressed_pairIPN3glm3vecILi2EfLNS1_9qualifierE0EEENS_9allocatorIS4_EEEC1B7v160006IDnNS_18__default_init_tagEEEOT_OT0_, symObjAddr: 0x2B6C, symBinAddr: 0x100007278, symSize: 0x3C }
  - { offsetInCU: 0x177A6, offset: 0x177A6, size: 0x8, addend: 0x0, symName: __ZNSt3__117__compressed_pairIPN3glm3vecILi2EfLNS1_9qualifierE0EEENS_9allocatorIS4_EEEC2B7v160006IDnNS_18__default_init_tagEEEOT_OT0_, symObjAddr: 0x2BB8, symBinAddr: 0x1000072C4, symSize: 0x40 }
  - { offsetInCU: 0x177FE, offset: 0x177FE, size: 0x8, addend: 0x0, symName: __ZNSt3__122__compressed_pair_elemIPN3glm3vecILi2EfLNS1_9qualifierE0EEELi0ELb0EEC2B7v160006IDnvEEOT_, symObjAddr: 0x2BF8, symBinAddr: 0x100007304, symSize: 0x1C }
  - { offsetInCU: 0x17840, offset: 0x17840, size: 0x8, addend: 0x0, symName: __ZNSt3__122__compressed_pair_elemINS_9allocatorIN3glm3vecILi2EfLNS2_9qualifierE0EEEEELi1ELb1EEC2B7v160006ENS_18__default_init_tagE, symObjAddr: 0x2C14, symBinAddr: 0x100007320, symSize: 0x2C }
  - { offsetInCU: 0x17875, offset: 0x17875, size: 0x8, addend: 0x0, symName: __ZNSt3__19allocatorIN3glm3vecILi2EfLNS1_9qualifierE0EEEEC2B7v160006Ev, symObjAddr: 0x2C40, symBinAddr: 0x10000734C, symSize: 0x2C }
  - { offsetInCU: 0x1789F, offset: 0x1789F, size: 0x8, addend: 0x0, symName: __ZNSt3__116__non_trivial_ifILb1ENS_9allocatorIN3glm3vecILi2EfLNS2_9qualifierE0EEEEEEC2B7v160006Ev, symObjAddr: 0x2C6C, symBinAddr: 0x100007378, symSize: 0x14 }
  - { offsetInCU: 0x178C9, offset: 0x178C9, size: 0x8, addend: 0x0, symName: __ZNSt3__16vectorIN3glm3vecILi2EfLNS1_9qualifierE0EEENS_9allocatorIS4_EEED2B7v160006Ev, symObjAddr: 0x2C80, symBinAddr: 0x10000738C, symSize: 0x3C }
  - { offsetInCU: 0x178F3, offset: 0x178F3, size: 0x8, addend: 0x0, symName: __ZNSt3__16vectorIN3glm3vecILi2EfLNS1_9qualifierE0EEENS_9allocatorIS4_EEE16__destroy_vectorC1ERS7_, symObjAddr: 0x2CBC, symBinAddr: 0x1000073C8, symSize: 0x34 }
  - { offsetInCU: 0x1792C, offset: 0x1792C, size: 0x8, addend: 0x0, symName: __ZNSt3__16vectorIN3glm3vecILi2EfLNS1_9qualifierE0EEENS_9allocatorIS4_EEE16__destroy_vectorclB7v160006Ev, symObjAddr: 0x2CF0, symBinAddr: 0x1000073FC, symSize: 0x9C }
  - { offsetInCU: 0x17952, offset: 0x17952, size: 0x8, addend: 0x0, symName: __ZNSt3__16vectorIN3glm3vecILi2EfLNS1_9qualifierE0EEENS_9allocatorIS4_EEE16__destroy_vectorC2ERS7_, symObjAddr: 0x2D8C, symBinAddr: 0x100007498, symSize: 0x20 }
  - { offsetInCU: 0x1798B, offset: 0x1798B, size: 0x8, addend: 0x0, symName: __ZNKSt3__16vectorIN3glm3vecILi2EfLNS1_9qualifierE0EEENS_9allocatorIS4_EEE17__annotate_deleteB7v160006Ev, symObjAddr: 0x2DAC, symBinAddr: 0x1000074B8, symSize: 0xB8 }
  - { offsetInCU: 0x179B1, offset: 0x179B1, size: 0x8, addend: 0x0, symName: __ZNSt3__16vectorIN3glm3vecILi2EfLNS1_9qualifierE0EEENS_9allocatorIS4_EEE7__clearB7v160006Ev, symObjAddr: 0x2E74, symBinAddr: 0x100007580, symSize: 0x28 }
  - { offsetInCU: 0x179D7, offset: 0x179D7, size: 0x8, addend: 0x0, symName: __ZNSt3__116allocator_traitsINS_9allocatorIN3glm3vecILi2EfLNS2_9qualifierE0EEEEEE10deallocateB7v160006ERS6_PS5_m, symObjAddr: 0x2E9C, symBinAddr: 0x1000075A8, symSize: 0x34 }
  - { offsetInCU: 0x17A19, offset: 0x17A19, size: 0x8, addend: 0x0, symName: __ZNSt3__16vectorIN3glm3vecILi2EfLNS1_9qualifierE0EEENS_9allocatorIS4_EEE7__allocB7v160006Ev, symObjAddr: 0x2ED0, symBinAddr: 0x1000075DC, symSize: 0x28 }
  - { offsetInCU: 0x17A3F, offset: 0x17A3F, size: 0x8, addend: 0x0, symName: __ZNKSt3__16vectorIN3glm3vecILi2EfLNS1_9qualifierE0EEENS_9allocatorIS4_EEE8capacityB7v160006Ev, symObjAddr: 0x2EF8, symBinAddr: 0x100007604, symSize: 0x40 }
  - { offsetInCU: 0x17A65, offset: 0x17A65, size: 0x8, addend: 0x0, symName: __ZNKSt3__16vectorIN3glm3vecILi2EfLNS1_9qualifierE0EEENS_9allocatorIS4_EEE31__annotate_contiguous_containerB7v160006EPKvS9_S9_S9_, symObjAddr: 0x2F38, symBinAddr: 0x100007644, symSize: 0x20 }
  - { offsetInCU: 0x17AB7, offset: 0x17AB7, size: 0x8, addend: 0x0, symName: __ZNKSt3__16vectorIN3glm3vecILi2EfLNS1_9qualifierE0EEENS_9allocatorIS4_EEE4dataB7v160006Ev, symObjAddr: 0x2F58, symBinAddr: 0x100007664, symSize: 0x28 }
  - { offsetInCU: 0x17ADD, offset: 0x17ADD, size: 0x8, addend: 0x0, symName: __ZNSt3__16vectorIN3glm3vecILi2EfLNS1_9qualifierE0EEENS_9allocatorIS4_EEE22__base_destruct_at_endB7v160006EPS4_, symObjAddr: 0x2F94, symBinAddr: 0x1000076A0, symSize: 0xA0 }
  - { offsetInCU: 0x17B21, offset: 0x17B21, size: 0x8, addend: 0x0, symName: __ZNSt3__116allocator_traitsINS_9allocatorIN3glm3vecILi2EfLNS2_9qualifierE0EEEEEE7destroyB7v160006IS5_vEEvRS6_PT_, symObjAddr: 0x3034, symBinAddr: 0x100007740, symSize: 0x2C }
  - { offsetInCU: 0x17B5E, offset: 0x17B5E, size: 0x8, addend: 0x0, symName: __ZNSt3__19allocatorIN3glm3vecILi2EfLNS1_9qualifierE0EEEE7destroyB7v160006EPS4_, symObjAddr: 0x3060, symBinAddr: 0x10000776C, symSize: 0x14 }
  - { offsetInCU: 0x17B92, offset: 0x17B92, size: 0x8, addend: 0x0, symName: __ZNSt3__19allocatorIN3glm3vecILi2EfLNS1_9qualifierE0EEEE10deallocateB7v160006EPS4_m, symObjAddr: 0x3074, symBinAddr: 0x100007780, symSize: 0x70 }
  - { offsetInCU: 0x17BD4, offset: 0x17BD4, size: 0x8, addend: 0x0, symName: __ZNSt3__117__compressed_pairIPN3glm3vecILi2EfLNS1_9qualifierE0EEENS_9allocatorIS4_EEE6secondB7v160006Ev, symObjAddr: 0x30E4, symBinAddr: 0x1000077F0, symSize: 0x24 }
  - { offsetInCU: 0x17BFA, offset: 0x17BFA, size: 0x8, addend: 0x0, symName: __ZNSt3__122__compressed_pair_elemINS_9allocatorIN3glm3vecILi2EfLNS2_9qualifierE0EEEEELi1ELb1EE5__getB7v160006Ev, symObjAddr: 0x3108, symBinAddr: 0x100007814, symSize: 0x14 }
  - { offsetInCU: 0x17C20, offset: 0x17C20, size: 0x8, addend: 0x0, symName: __ZNKSt3__16vectorIN3glm3vecILi2EfLNS1_9qualifierE0EEENS_9allocatorIS4_EEE9__end_capB7v160006Ev, symObjAddr: 0x311C, symBinAddr: 0x100007828, symSize: 0x28 }
  - { offsetInCU: 0x17C46, offset: 0x17C46, size: 0x8, addend: 0x0, symName: __ZNKSt3__117__compressed_pairIPN3glm3vecILi2EfLNS1_9qualifierE0EEENS_9allocatorIS4_EEE5firstB7v160006Ev, symObjAddr: 0x3144, symBinAddr: 0x100007850, symSize: 0x24 }
  - { offsetInCU: 0x17C6C, offset: 0x17C6C, size: 0x8, addend: 0x0, symName: __ZNKSt3__122__compressed_pair_elemIPN3glm3vecILi2EfLNS1_9qualifierE0EEELi0ELb0EE5__getB7v160006Ev, symObjAddr: 0x3168, symBinAddr: 0x100007874, symSize: 0x14 }
  - { offsetInCU: 0x17C92, offset: 0x17C92, size: 0x8, addend: 0x0, symName: __ZNSt3__16vectorI4FaceNS_9allocatorIS1_EEEC2B7v160006Ev, symObjAddr: 0x317C, symBinAddr: 0x100007888, symSize: 0x4C }
  - { offsetInCU: 0x17CBC, offset: 0x17CBC, size: 0x8, addend: 0x0, symName: __ZNSt3__117__compressed_pairIP4FaceNS_9allocatorIS1_EEEC1B7v160006IDnNS_18__default_init_tagEEEOT_OT0_, symObjAddr: 0x31C8, symBinAddr: 0x1000078D4, symSize: 0x3C }
  - { offsetInCU: 0x17D14, offset: 0x17D14, size: 0x8, addend: 0x0, symName: __ZNSt3__117__compressed_pairIP4FaceNS_9allocatorIS1_EEEC2B7v160006IDnNS_18__default_init_tagEEEOT_OT0_, symObjAddr: 0x3214, symBinAddr: 0x100007920, symSize: 0x40 }
  - { offsetInCU: 0x17D6C, offset: 0x17D6C, size: 0x8, addend: 0x0, symName: __ZNSt3__122__compressed_pair_elemIP4FaceLi0ELb0EEC2B7v160006IDnvEEOT_, symObjAddr: 0x3254, symBinAddr: 0x100007960, symSize: 0x1C }
  - { offsetInCU: 0x17DAE, offset: 0x17DAE, size: 0x8, addend: 0x0, symName: __ZNSt3__122__compressed_pair_elemINS_9allocatorI4FaceEELi1ELb1EEC2B7v160006ENS_18__default_init_tagE, symObjAddr: 0x3270, symBinAddr: 0x10000797C, symSize: 0x2C }
  - { offsetInCU: 0x17DE3, offset: 0x17DE3, size: 0x8, addend: 0x0, symName: __ZNSt3__19allocatorI4FaceEC2B7v160006Ev, symObjAddr: 0x329C, symBinAddr: 0x1000079A8, symSize: 0x2C }
  - { offsetInCU: 0x17E0D, offset: 0x17E0D, size: 0x8, addend: 0x0, symName: __ZNSt3__116__non_trivial_ifILb1ENS_9allocatorI4FaceEEEC2B7v160006Ev, symObjAddr: 0x32C8, symBinAddr: 0x1000079D4, symSize: 0x14 }
  - { offsetInCU: 0x17E37, offset: 0x17E37, size: 0x8, addend: 0x0, symName: __ZNSt3__16vectorI4FaceNS_9allocatorIS1_EEED2B7v160006Ev, symObjAddr: 0x32DC, symBinAddr: 0x1000079E8, symSize: 0x3C }
  - { offsetInCU: 0x17E61, offset: 0x17E61, size: 0x8, addend: 0x0, symName: __ZNSt3__16vectorI4FaceNS_9allocatorIS1_EEE16__destroy_vectorC1ERS4_, symObjAddr: 0x3318, symBinAddr: 0x100007A24, symSize: 0x34 }
  - { offsetInCU: 0x17E9A, offset: 0x17E9A, size: 0x8, addend: 0x0, symName: __ZNSt3__16vectorI4FaceNS_9allocatorIS1_EEE16__destroy_vectorclB7v160006Ev, symObjAddr: 0x334C, symBinAddr: 0x100007A58, symSize: 0x9C }
  - { offsetInCU: 0x17EC0, offset: 0x17EC0, size: 0x8, addend: 0x0, symName: __ZNSt3__16vectorI4FaceNS_9allocatorIS1_EEE16__destroy_vectorC2ERS4_, symObjAddr: 0x33E8, symBinAddr: 0x100007AF4, symSize: 0x20 }
  - { offsetInCU: 0x17EF9, offset: 0x17EF9, size: 0x8, addend: 0x0, symName: __ZNKSt3__16vectorI4FaceNS_9allocatorIS1_EEE17__annotate_deleteB7v160006Ev, symObjAddr: 0x3408, symBinAddr: 0x100007B14, symSize: 0xD4 }
  - { offsetInCU: 0x17F1F, offset: 0x17F1F, size: 0x8, addend: 0x0, symName: __ZNSt3__16vectorI4FaceNS_9allocatorIS1_EEE7__clearB7v160006Ev, symObjAddr: 0x34EC, symBinAddr: 0x100007BF8, symSize: 0x28 }
  - { offsetInCU: 0x17F45, offset: 0x17F45, size: 0x8, addend: 0x0, symName: __ZNSt3__116allocator_traitsINS_9allocatorI4FaceEEE10deallocateB7v160006ERS3_PS2_m, symObjAddr: 0x3514, symBinAddr: 0x100007C20, symSize: 0x34 }
  - { offsetInCU: 0x17F87, offset: 0x17F87, size: 0x8, addend: 0x0, symName: __ZNSt3__16vectorI4FaceNS_9allocatorIS1_EEE7__allocB7v160006Ev, symObjAddr: 0x3548, symBinAddr: 0x100007C54, symSize: 0x28 }
  - { offsetInCU: 0x17FAD, offset: 0x17FAD, size: 0x8, addend: 0x0, symName: __ZNKSt3__16vectorI4FaceNS_9allocatorIS1_EEE8capacityB7v160006Ev, symObjAddr: 0x3570, symBinAddr: 0x100007C7C, symSize: 0x40 }
  - { offsetInCU: 0x17FD3, offset: 0x17FD3, size: 0x8, addend: 0x0, symName: __ZNKSt3__16vectorI4FaceNS_9allocatorIS1_EEE31__annotate_contiguous_containerB7v160006EPKvS6_S6_S6_, symObjAddr: 0x35B0, symBinAddr: 0x100007CBC, symSize: 0x20 }
  - { offsetInCU: 0x18025, offset: 0x18025, size: 0x8, addend: 0x0, symName: __ZNKSt3__16vectorI4FaceNS_9allocatorIS1_EEE4dataB7v160006Ev, symObjAddr: 0x35D0, symBinAddr: 0x100007CDC, symSize: 0x28 }
  - { offsetInCU: 0x1804B, offset: 0x1804B, size: 0x8, addend: 0x0, symName: __ZNSt3__16vectorI4FaceNS_9allocatorIS1_EEE22__base_destruct_at_endB7v160006EPS1_, symObjAddr: 0x360C, symBinAddr: 0x100007D18, symSize: 0xA0 }
  - { offsetInCU: 0x1808F, offset: 0x1808F, size: 0x8, addend: 0x0, symName: __ZNSt3__116allocator_traitsINS_9allocatorI4FaceEEE7destroyB7v160006IS2_vEEvRS3_PT_, symObjAddr: 0x36AC, symBinAddr: 0x100007DB8, symSize: 0x2C }
  - { offsetInCU: 0x180CC, offset: 0x180CC, size: 0x8, addend: 0x0, symName: __ZNSt3__19allocatorI4FaceE7destroyB7v160006EPS1_, symObjAddr: 0x36D8, symBinAddr: 0x100007DE4, symSize: 0x14 }
  - { offsetInCU: 0x18100, offset: 0x18100, size: 0x8, addend: 0x0, symName: __ZNSt3__19allocatorI4FaceE10deallocateB7v160006EPS1_m, symObjAddr: 0x36EC, symBinAddr: 0x100007DF8, symSize: 0x74 }
  - { offsetInCU: 0x18142, offset: 0x18142, size: 0x8, addend: 0x0, symName: __ZNSt3__117__compressed_pairIP4FaceNS_9allocatorIS1_EEE6secondB7v160006Ev, symObjAddr: 0x3760, symBinAddr: 0x100007E6C, symSize: 0x24 }
  - { offsetInCU: 0x18168, offset: 0x18168, size: 0x8, addend: 0x0, symName: __ZNSt3__122__compressed_pair_elemINS_9allocatorI4FaceEELi1ELb1EE5__getB7v160006Ev, symObjAddr: 0x3784, symBinAddr: 0x100007E90, symSize: 0x14 }
  - { offsetInCU: 0x1818E, offset: 0x1818E, size: 0x8, addend: 0x0, symName: __ZNKSt3__16vectorI4FaceNS_9allocatorIS1_EEE9__end_capB7v160006Ev, symObjAddr: 0x3798, symBinAddr: 0x100007EA4, symSize: 0x28 }
  - { offsetInCU: 0x181B4, offset: 0x181B4, size: 0x8, addend: 0x0, symName: __ZNKSt3__117__compressed_pairIP4FaceNS_9allocatorIS1_EEE5firstB7v160006Ev, symObjAddr: 0x37C0, symBinAddr: 0x100007ECC, symSize: 0x24 }
  - { offsetInCU: 0x181DA, offset: 0x181DA, size: 0x8, addend: 0x0, symName: __ZNKSt3__122__compressed_pair_elemIP4FaceLi0ELb0EE5__getB7v160006Ev, symObjAddr: 0x37E4, symBinAddr: 0x100007EF0, symSize: 0x14 }
  - { offsetInCU: 0x18200, offset: 0x18200, size: 0x8, addend: 0x0, symName: __ZNSt3__19basic_iosIcNS_11char_traitsIcEEEC2B7v160006Ev, symObjAddr: 0x37F8, symBinAddr: 0x100007F04, symSize: 0x44 }
  - { offsetInCU: 0x1822A, offset: 0x1822A, size: 0x8, addend: 0x0, symName: __ZNSt3__113basic_istreamIcNS_11char_traitsIcEEEC2B7v160006EPNS_15basic_streambufIcS2_EE, symObjAddr: 0x383C, symBinAddr: 0x100007F48, symSize: 0x64 }
  - { offsetInCU: 0x1826F, offset: 0x1826F, size: 0x8, addend: 0x0, symName: __ZNSt3__19basic_iosIcNS_11char_traitsIcEEE8setstateB7v160006Ej, symObjAddr: 0x38A0, symBinAddr: 0x100007FAC, symSize: 0x2C }
  - { offsetInCU: 0x182A4, offset: 0x182A4, size: 0x8, addend: 0x0, symName: __ZNSt3__18ios_baseC2B7v160006Ev, symObjAddr: 0x38CC, symBinAddr: 0x100007FD8, symSize: 0x24 }
  - { offsetInCU: 0x182CE, offset: 0x182CE, size: 0x8, addend: 0x0, symName: __ZNSt3__19basic_iosIcNS_11char_traitsIcEEE4initB7v160006EPNS_15basic_streambufIcS2_EE, symObjAddr: 0x38F0, symBinAddr: 0x100007FFC, symSize: 0x44 }
  - { offsetInCU: 0x18305, offset: 0x18305, size: 0x8, addend: 0x0, symName: __ZNSt3__111char_traitsIcE3eofEv, symObjAddr: 0x3934, symBinAddr: 0x100008040, symSize: 0x8 }
  - { offsetInCU: 0x18319, offset: 0x18319, size: 0x8, addend: 0x0, symName: __ZNSt3__18ios_base8setstateB7v160006Ej, symObjAddr: 0x393C, symBinAddr: 0x100008048, symSize: 0x34 }
  - { offsetInCU: 0x18350, offset: 0x18350, size: 0x8, addend: 0x0, symName: __ZNKSt3__113basic_filebufIcNS_11char_traitsIcEEE7is_openEv, symObjAddr: 0x3970, symBinAddr: 0x10000807C, symSize: 0x24 }
  - { offsetInCU: 0x18378, offset: 0x18378, size: 0x8, addend: 0x0, symName: __ZNSt3__111char_traitsIcE6lengthEPKc, symObjAddr: 0x3B88, symBinAddr: 0x100008294, symSize: 0x48 }
  - { offsetInCU: 0x183B9, offset: 0x183B9, size: 0x8, addend: 0x0, symName: __ZNKSt3__113basic_ostreamIcNS_11char_traitsIcEEE6sentrycvbB7v160006Ev, symObjAddr: 0x3BD0, symBinAddr: 0x1000082DC, symSize: 0x1C }
  - { offsetInCU: 0x183DF, offset: 0x183DF, size: 0x8, addend: 0x0, symName: __ZNSt3__119ostreambuf_iteratorIcNS_11char_traitsIcEEEC1B7v160006ERNS_13basic_ostreamIcS2_EE, symObjAddr: 0x3E34, symBinAddr: 0x100008540, symSize: 0x34 }
  - { offsetInCU: 0x18417, offset: 0x18417, size: 0x8, addend: 0x0, symName: __ZNKSt3__18ios_base5flagsB7v160006Ev, symObjAddr: 0x3E68, symBinAddr: 0x100008574, symSize: 0x18 }
  - { offsetInCU: 0x1843F, offset: 0x1843F, size: 0x8, addend: 0x0, symName: __ZNKSt3__19basic_iosIcNS_11char_traitsIcEEE4fillB7v160006Ev, symObjAddr: 0x3E80, symBinAddr: 0x10000858C, symSize: 0x64 }
  - { offsetInCU: 0x18467, offset: 0x18467, size: 0x8, addend: 0x0, symName: __ZNKSt3__119ostreambuf_iteratorIcNS_11char_traitsIcEEE6failedB7v160006Ev, symObjAddr: 0x3EE4, symBinAddr: 0x1000085F0, symSize: 0x24 }
  - { offsetInCU: 0x1848D, offset: 0x1848D, size: 0x8, addend: 0x0, symName: __ZNKSt3__18ios_base5widthB7v160006Ev, symObjAddr: 0x3F08, symBinAddr: 0x100008614, symSize: 0x18 }
  - { offsetInCU: 0x184B5, offset: 0x184B5, size: 0x8, addend: 0x0, symName: __ZNSt3__115basic_streambufIcNS_11char_traitsIcEEE5sputnB7v160006EPKcl, symObjAddr: 0x3F20, symBinAddr: 0x10000862C, symSize: 0x3C }
  - { offsetInCU: 0x184F7, offset: 0x184F7, size: 0x8, addend: 0x0, symName: __ZNSt3__112basic_stringIcNS_11char_traitsIcEENS_9allocatorIcEEEC1B7v160006Emc, symObjAddr: 0x3F5C, symBinAddr: 0x100008668, symSize: 0x3C }
  - { offsetInCU: 0x1853F, offset: 0x1853F, size: 0x8, addend: 0x0, symName: __ZNKSt3__112basic_stringIcNS_11char_traitsIcEENS_9allocatorIcEEE4dataB7v160006Ev, symObjAddr: 0x3F98, symBinAddr: 0x1000086A4, symSize: 0x28 }
  - { offsetInCU: 0x18565, offset: 0x18565, size: 0x8, addend: 0x0, symName: __ZNSt3__18ios_base5widthB7v160006El, symObjAddr: 0x3FC0, symBinAddr: 0x1000086CC, symSize: 0x2C }
  - { offsetInCU: 0x185AB, offset: 0x185AB, size: 0x8, addend: 0x0, symName: __ZNSt3__112basic_stringIcNS_11char_traitsIcEENS_9allocatorIcEEEC2B7v160006Emc, symObjAddr: 0x3FEC, symBinAddr: 0x1000086F8, symSize: 0x54 }
  - { offsetInCU: 0x185F3, offset: 0x185F3, size: 0x8, addend: 0x0, symName: __ZNSt3__117__compressed_pairINS_12basic_stringIcNS_11char_traitsIcEENS_9allocatorIcEEE5__repES5_EC1B7v160006INS_18__default_init_tagESA_EEOT_OT0_, symObjAddr: 0x4040, symBinAddr: 0x10000874C, symSize: 0x3C }
  - { offsetInCU: 0x1864B, offset: 0x1864B, size: 0x8, addend: 0x0, symName: __ZNSt3__117__compressed_pairINS_12basic_stringIcNS_11char_traitsIcEENS_9allocatorIcEEE5__repES5_EC2B7v160006INS_18__default_init_tagESA_EEOT_OT0_, symObjAddr: 0x408C, symBinAddr: 0x100008798, symSize: 0x3C }
  - { offsetInCU: 0x186A3, offset: 0x186A3, size: 0x8, addend: 0x0, symName: __ZNSt3__122__compressed_pair_elemINS_12basic_stringIcNS_11char_traitsIcEENS_9allocatorIcEEE5__repELi0ELb0EEC2B7v160006ENS_18__default_init_tagE, symObjAddr: 0x40C8, symBinAddr: 0x1000087D4, symSize: 0x14 }
  - { offsetInCU: 0x186D8, offset: 0x186D8, size: 0x8, addend: 0x0, symName: __ZNSt3__122__compressed_pair_elemINS_9allocatorIcEELi1ELb1EEC2B7v160006ENS_18__default_init_tagE, symObjAddr: 0x40DC, symBinAddr: 0x1000087E8, symSize: 0x2C }
  - { offsetInCU: 0x1870D, offset: 0x1870D, size: 0x8, addend: 0x0, symName: __ZNSt3__19allocatorIcEC2B7v160006Ev, symObjAddr: 0x4108, symBinAddr: 0x100008814, symSize: 0x2C }
  - { offsetInCU: 0x18737, offset: 0x18737, size: 0x8, addend: 0x0, symName: __ZNSt3__116__non_trivial_ifILb1ENS_9allocatorIcEEEC2B7v160006Ev, symObjAddr: 0x4134, symBinAddr: 0x100008840, symSize: 0x14 }
  - { offsetInCU: 0x18761, offset: 0x18761, size: 0x8, addend: 0x0, symName: __ZNKSt3__112basic_stringIcNS_11char_traitsIcEENS_9allocatorIcEEE13__get_pointerB7v160006Ev, symObjAddr: 0x415C, symBinAddr: 0x100008868, symSize: 0x54 }
  - { offsetInCU: 0x18787, offset: 0x18787, size: 0x8, addend: 0x0, symName: __ZNKSt3__112basic_stringIcNS_11char_traitsIcEENS_9allocatorIcEEE9__is_longB7v160006Ev, symObjAddr: 0x41B0, symBinAddr: 0x1000088BC, symSize: 0x74 }
  - { offsetInCU: 0x187AD, offset: 0x187AD, size: 0x8, addend: 0x0, symName: __ZNKSt3__112basic_stringIcNS_11char_traitsIcEENS_9allocatorIcEEE18__get_long_pointerB7v160006Ev, symObjAddr: 0x4224, symBinAddr: 0x100008930, symSize: 0x28 }
  - { offsetInCU: 0x187D3, offset: 0x187D3, size: 0x8, addend: 0x0, symName: __ZNKSt3__112basic_stringIcNS_11char_traitsIcEENS_9allocatorIcEEE19__get_short_pointerB7v160006Ev, symObjAddr: 0x424C, symBinAddr: 0x100008958, symSize: 0x28 }
  - { offsetInCU: 0x187F9, offset: 0x187F9, size: 0x8, addend: 0x0, symName: __ZNKSt3__117__compressed_pairINS_12basic_stringIcNS_11char_traitsIcEENS_9allocatorIcEEE5__repES5_E5firstB7v160006Ev, symObjAddr: 0x4274, symBinAddr: 0x100008980, symSize: 0x24 }
  - { offsetInCU: 0x1881F, offset: 0x1881F, size: 0x8, addend: 0x0, symName: __ZNKSt3__122__compressed_pair_elemINS_12basic_stringIcNS_11char_traitsIcEENS_9allocatorIcEEE5__repELi0ELb0EE5__getB7v160006Ev, symObjAddr: 0x4298, symBinAddr: 0x1000089A4, symSize: 0x14 }
  - { offsetInCU: 0x18845, offset: 0x18845, size: 0x8, addend: 0x0, symName: __ZNSt3__114pointer_traitsIPKcE10pointer_toB7v160006ERS1_, symObjAddr: 0x42AC, symBinAddr: 0x1000089B8, symSize: 0x14 }
  - { offsetInCU: 0x18868, offset: 0x18868, size: 0x8, addend: 0x0, symName: __ZNSt3__119ostreambuf_iteratorIcNS_11char_traitsIcEEEC2B7v160006ERNS_13basic_ostreamIcS2_EE, symObjAddr: 0x42C0, symBinAddr: 0x1000089CC, symSize: 0x68 }
  - { offsetInCU: 0x188A0, offset: 0x188A0, size: 0x8, addend: 0x0, symName: __ZNKSt3__19basic_iosIcNS_11char_traitsIcEEE5rdbufB7v160006Ev, symObjAddr: 0x4328, symBinAddr: 0x100008A34, symSize: 0x24 }
  - { offsetInCU: 0x188C8, offset: 0x188C8, size: 0x8, addend: 0x0, symName: __ZNKSt3__18ios_base5rdbufB7v160006Ev, symObjAddr: 0x434C, symBinAddr: 0x100008A58, symSize: 0x18 }
  - { offsetInCU: 0x188EE, offset: 0x188EE, size: 0x8, addend: 0x0, symName: __ZNSt3__111char_traitsIcE11eq_int_typeEii, symObjAddr: 0x4364, symBinAddr: 0x100008A70, symSize: 0x28 }
  - { offsetInCU: 0x1891F, offset: 0x1891F, size: 0x8, addend: 0x0, symName: __ZNKSt3__19basic_iosIcNS_11char_traitsIcEEE5widenB7v160006Ec, symObjAddr: 0x438C, symBinAddr: 0x100008A98, symSize: 0x8C }
  - { offsetInCU: 0x1898D, offset: 0x1898D, size: 0x8, addend: 0x0, symName: __ZNKSt3__15ctypeIcE5widenB7v160006Ec, symObjAddr: 0x4444, symBinAddr: 0x100008B50, symSize: 0x38 }
  - { offsetInCU: 0x189C2, offset: 0x189C2, size: 0x8, addend: 0x0, symName: __ZNSt3__112basic_stringIcNS_11char_traitsIcEENS_9allocatorIcEEEC2B7v160006Ev, symObjAddr: 0x44A0, symBinAddr: 0x100008BAC, symSize: 0x44 }
  - { offsetInCU: 0x189EC, offset: 0x189EC, size: 0x8, addend: 0x0, symName: __ZNSt3__112basic_stringIcNS_11char_traitsIcEENS_9allocatorIcEEE14__default_initB7v160006Ev, symObjAddr: 0x44E4, symBinAddr: 0x100008BF0, symSize: 0xB0 }
  - { offsetInCU: 0x18A3F, offset: 0x18A3F, size: 0x8, addend: 0x0, symName: __ZNSt3__117__compressed_pairINS_12basic_stringIcNS_11char_traitsIcEENS_9allocatorIcEEE5__repES5_E5firstB7v160006Ev, symObjAddr: 0x4594, symBinAddr: 0x100008CA0, symSize: 0x24 }
  - { offsetInCU: 0x18A65, offset: 0x18A65, size: 0x8, addend: 0x0, symName: __ZNSt3__112basic_stringIcNS_11char_traitsIcEENS_9allocatorIcEEE11__recommendB7v160006Em, symObjAddr: 0x45B8, symBinAddr: 0x100008CC4, symSize: 0x9C }
  - { offsetInCU: 0x18A98, offset: 0x18A98, size: 0x8, addend: 0x0, symName: __ZNSt3__116allocator_traitsINS_9allocatorIcEEE8allocateB7v160006ERS2_m, symObjAddr: 0x4654, symBinAddr: 0x100008D60, symSize: 0x2C }
  - { offsetInCU: 0x18ACB, offset: 0x18ACB, size: 0x8, addend: 0x0, symName: __ZNSt3__112basic_stringIcNS_11char_traitsIcEENS_9allocatorIcEEE7__allocB7v160006Ev, symObjAddr: 0x4680, symBinAddr: 0x100008D8C, symSize: 0x24 }
  - { offsetInCU: 0x18AF1, offset: 0x18AF1, size: 0x8, addend: 0x0, symName: __ZNSt3__112basic_stringIcNS_11char_traitsIcEENS_9allocatorIcEEE16__begin_lifetimeB7v160006EPcm, symObjAddr: 0x46A4, symBinAddr: 0x100008DB0, symSize: 0x14 }
  - { offsetInCU: 0x18B24, offset: 0x18B24, size: 0x8, addend: 0x0, symName: __ZNSt3__112basic_stringIcNS_11char_traitsIcEENS_9allocatorIcEEE18__set_long_pointerB7v160006EPc, symObjAddr: 0x46B8, symBinAddr: 0x100008DC4, symSize: 0x38 }
  - { offsetInCU: 0x18B59, offset: 0x18B59, size: 0x8, addend: 0x0, symName: __ZNSt3__112basic_stringIcNS_11char_traitsIcEENS_9allocatorIcEEE14__set_long_capB7v160006Em, symObjAddr: 0x46F0, symBinAddr: 0x100008DFC, symSize: 0x70 }
  - { offsetInCU: 0x18B8E, offset: 0x18B8E, size: 0x8, addend: 0x0, symName: __ZNSt3__112basic_stringIcNS_11char_traitsIcEENS_9allocatorIcEEE15__set_long_sizeB7v160006Em, symObjAddr: 0x4760, symBinAddr: 0x100008E6C, symSize: 0x38 }
  - { offsetInCU: 0x18BC3, offset: 0x18BC3, size: 0x8, addend: 0x0, symName: __ZNSt3__122__compressed_pair_elemINS_12basic_stringIcNS_11char_traitsIcEENS_9allocatorIcEEE5__repELi0ELb0EE5__getB7v160006Ev, symObjAddr: 0x4798, symBinAddr: 0x100008EA4, symSize: 0x14 }
  - { offsetInCU: 0x18BE9, offset: 0x18BE9, size: 0x8, addend: 0x0, symName: __ZNSt3__112basic_stringIcNS_11char_traitsIcEENS_9allocatorIcEEE10__align_itB7v160006ILm16EEEmm, symObjAddr: 0x47AC, symBinAddr: 0x100008EB8, symSize: 0x1C }
  - { offsetInCU: 0x18C17, offset: 0x18C17, size: 0x8, addend: 0x0, symName: __ZNSt3__19allocatorIcE8allocateB7v160006Em, symObjAddr: 0x47C8, symBinAddr: 0x100008ED4, symSize: 0x84 }
  - { offsetInCU: 0x18C55, offset: 0x18C55, size: 0x8, addend: 0x0, symName: __ZNSt3__116allocator_traitsINS_9allocatorIcEEE8max_sizeB7v160006IS2_vEEmRKS2_, symObjAddr: 0x484C, symBinAddr: 0x100008F58, symSize: 0x24 }
  - { offsetInCU: 0x18C83, offset: 0x18C83, size: 0x8, addend: 0x0, symName: __ZNKSt3__19allocatorIcE8max_sizeB7v160006Ev, symObjAddr: 0x48CC, symBinAddr: 0x100008FD8, symSize: 0x14 }
  - { offsetInCU: 0x18CA9, offset: 0x18CA9, size: 0x8, addend: 0x0, symName: __ZNSt3__117__compressed_pairINS_12basic_stringIcNS_11char_traitsIcEENS_9allocatorIcEEE5__repES5_E6secondB7v160006Ev, symObjAddr: 0x4904, symBinAddr: 0x100009010, symSize: 0x24 }
  - { offsetInCU: 0x18CCF, offset: 0x18CCF, size: 0x8, addend: 0x0, symName: __ZNSt3__122__compressed_pair_elemINS_9allocatorIcEELi1ELb1EE5__getB7v160006Ev, symObjAddr: 0x4928, symBinAddr: 0x100009034, symSize: 0x14 }
  - { offsetInCU: 0x18D13, offset: 0x18D13, size: 0x8, addend: 0x0, symName: __ZNKSt3__113basic_istreamIcNS_11char_traitsIcEEE6sentrycvbB7v160006Ev, symObjAddr: 0x4B74, symBinAddr: 0x100009280, symSize: 0x1C }
  - { offsetInCU: 0x18D39, offset: 0x18D39, size: 0x8, addend: 0x0, symName: __ZNSt3__112basic_stringIcNS_11char_traitsIcEENS_9allocatorIcEEE5clearB7v160006Ev, symObjAddr: 0x4B90, symBinAddr: 0x10000929C, symSize: 0x9C }
  - { offsetInCU: 0x18D61, offset: 0x18D61, size: 0x8, addend: 0x0, symName: __ZNSt3__115basic_streambufIcNS_11char_traitsIcEEE6sbumpcB7v160006Ev, symObjAddr: 0x4C2C, symBinAddr: 0x100009338, symSize: 0x78 }
  - { offsetInCU: 0x18D87, offset: 0x18D87, size: 0x8, addend: 0x0, symName: __ZNSt3__111char_traitsIcE12to_char_typeEi, symObjAddr: 0x4CA4, symBinAddr: 0x1000093B0, symSize: 0x18 }
  - { offsetInCU: 0x18DAA, offset: 0x18DAA, size: 0x8, addend: 0x0, symName: __ZNSt3__111char_traitsIcE2eqEcc, symObjAddr: 0x4CBC, symBinAddr: 0x1000093C8, symSize: 0x28 }
  - { offsetInCU: 0x18DDB, offset: 0x18DDB, size: 0x8, addend: 0x0, symName: __ZNKSt3__112basic_stringIcNS_11char_traitsIcEENS_9allocatorIcEEE4sizeB7v160006Ev, symObjAddr: 0x4CE4, symBinAddr: 0x1000093F0, symSize: 0x54 }
  - { offsetInCU: 0x18E01, offset: 0x18E01, size: 0x8, addend: 0x0, symName: __ZNKSt3__112basic_stringIcNS_11char_traitsIcEENS_9allocatorIcEEE8max_sizeB7v160006Ev, symObjAddr: 0x4D38, symBinAddr: 0x100009444, symSize: 0xAC }
  - { offsetInCU: 0x18E54, offset: 0x18E54, size: 0x8, addend: 0x0, symName: __ZNSt3__18ios_base18__setstate_nothrowB7v160006Ej, symObjAddr: 0x4DE4, symBinAddr: 0x1000094F0, symSize: 0x64 }
  - { offsetInCU: 0x18E89, offset: 0x18E89, size: 0x8, addend: 0x0, symName: __ZNKSt3__19basic_iosIcNS_11char_traitsIcEEE10exceptionsB7v160006Ev, symObjAddr: 0x4E48, symBinAddr: 0x100009554, symSize: 0x24 }
  - { offsetInCU: 0x18EAF, offset: 0x18EAF, size: 0x8, addend: 0x0, symName: __ZNSt3__111char_traitsIcE6assignERcRKc, symObjAddr: 0x4E7C, symBinAddr: 0x100009588, symSize: 0x24 }
  - { offsetInCU: 0x18EE0, offset: 0x18EE0, size: 0x8, addend: 0x0, symName: __ZNSt3__112basic_stringIcNS_11char_traitsIcEENS_9allocatorIcEEE18__get_long_pointerB7v160006Ev, symObjAddr: 0x4EA0, symBinAddr: 0x1000095AC, symSize: 0x28 }
  - { offsetInCU: 0x18F06, offset: 0x18F06, size: 0x8, addend: 0x0, symName: __ZNSt3__112basic_stringIcNS_11char_traitsIcEENS_9allocatorIcEEE19__get_short_pointerB7v160006Ev, symObjAddr: 0x4EC8, symBinAddr: 0x1000095D4, symSize: 0x28 }
  - { offsetInCU: 0x18F2C, offset: 0x18F2C, size: 0x8, addend: 0x0, symName: __ZNSt3__112basic_stringIcNS_11char_traitsIcEENS_9allocatorIcEEE16__set_short_sizeB7v160006Em, symObjAddr: 0x4EF0, symBinAddr: 0x1000095FC, symSize: 0x78 }
  - { offsetInCU: 0x18F61, offset: 0x18F61, size: 0x8, addend: 0x0, symName: __ZNSt3__114pointer_traitsIPcE10pointer_toB7v160006ERc, symObjAddr: 0x4F68, symBinAddr: 0x100009674, symSize: 0x14 }
  - { offsetInCU: 0x18F84, offset: 0x18F84, size: 0x8, addend: 0x0, symName: __ZNSt3__111char_traitsIcE11to_int_typeEc, symObjAddr: 0x4F7C, symBinAddr: 0x100009688, symSize: 0x14 }
  - { offsetInCU: 0x18FA7, offset: 0x18FA7, size: 0x8, addend: 0x0, symName: __ZNKSt3__112basic_stringIcNS_11char_traitsIcEENS_9allocatorIcEEE15__get_long_sizeB7v160006Ev, symObjAddr: 0x4F90, symBinAddr: 0x10000969C, symSize: 0x28 }
  - { offsetInCU: 0x18FCD, offset: 0x18FCD, size: 0x8, addend: 0x0, symName: __ZNKSt3__112basic_stringIcNS_11char_traitsIcEENS_9allocatorIcEEE16__get_short_sizeB7v160006Ev, symObjAddr: 0x4FB8, symBinAddr: 0x1000096C4, symSize: 0x34 }
  - { offsetInCU: 0x18FF3, offset: 0x18FF3, size: 0x8, addend: 0x0, symName: __ZNKSt3__112basic_stringIcNS_11char_traitsIcEENS_9allocatorIcEEE7__allocB7v160006Ev, symObjAddr: 0x4FEC, symBinAddr: 0x1000096F8, symSize: 0x24 }
  - { offsetInCU: 0x19019, offset: 0x19019, size: 0x8, addend: 0x0, symName: __ZNSt3__114numeric_limitsImE3maxB7v160006Ev, symObjAddr: 0x5010, symBinAddr: 0x10000971C, symSize: 0x14 }
  - { offsetInCU: 0x1902D, offset: 0x1902D, size: 0x8, addend: 0x0, symName: __ZNKSt3__117__compressed_pairINS_12basic_stringIcNS_11char_traitsIcEENS_9allocatorIcEEE5__repES5_E6secondB7v160006Ev, symObjAddr: 0x5024, symBinAddr: 0x100009730, symSize: 0x24 }
  - { offsetInCU: 0x19053, offset: 0x19053, size: 0x8, addend: 0x0, symName: __ZNKSt3__122__compressed_pair_elemINS_9allocatorIcEELi1ELb1EE5__getB7v160006Ev, symObjAddr: 0x5048, symBinAddr: 0x100009754, symSize: 0x14 }
  - { offsetInCU: 0x19079, offset: 0x19079, size: 0x8, addend: 0x0, symName: __ZNSt3__123__libcpp_numeric_limitsImLb1EE3maxB7v160006Ev, symObjAddr: 0x505C, symBinAddr: 0x100009768, symSize: 0x8 }
  - { offsetInCU: 0x1908D, offset: 0x1908D, size: 0x8, addend: 0x0, symName: __ZNKSt3__18ios_base10exceptionsB7v160006Ev, symObjAddr: 0x5064, symBinAddr: 0x100009770, symSize: 0x18 }
  - { offsetInCU: 0x190B5, offset: 0x190B5, size: 0x8, addend: 0x0, symName: __ZNKSt3__19basic_iosIcNS_11char_traitsIcEEE4failB7v160006Ev, symObjAddr: 0x507C, symBinAddr: 0x100009788, symSize: 0x28 }
  - { offsetInCU: 0x190DB, offset: 0x190DB, size: 0x8, addend: 0x0, symName: __ZNKSt3__18ios_base4failB7v160006Ev, symObjAddr: 0x50A4, symBinAddr: 0x1000097B0, symSize: 0x28 }
  - { offsetInCU: 0x19103, offset: 0x19103, size: 0x8, addend: 0x0, symName: __ZNSt3__19allocatorIcEC1B7v160006Ev, symObjAddr: 0x50CC, symBinAddr: 0x1000097D8, symSize: 0x2C }
  - { offsetInCU: 0x1912D, offset: 0x1912D, size: 0x8, addend: 0x0, symName: __ZN3glm3vecILi3EfLNS_9qualifierE0EEC2Ev, symObjAddr: 0x50F8, symBinAddr: 0x100009804, symSize: 0x14 }
  - { offsetInCU: 0x19159, offset: 0x19159, size: 0x8, addend: 0x0, symName: __ZNSt3__16vectorIN3glm3vecILi3EfLNS1_9qualifierE0EEENS_9allocatorIS4_EEE9__end_capB7v160006Ev, symObjAddr: 0x510C, symBinAddr: 0x100009818, symSize: 0x28 }
  - { offsetInCU: 0x1917F, offset: 0x1917F, size: 0x8, addend: 0x0, symName: __ZNSt3__16vectorIN3glm3vecILi3EfLNS1_9qualifierE0EEENS_9allocatorIS4_EEE22__construct_one_at_endB7v160006IJRKS4_EEEvDpOT_, symObjAddr: 0x5134, symBinAddr: 0x100009840, symSize: 0x98 }
  - { offsetInCU: 0x191CE, offset: 0x191CE, size: 0x8, addend: 0x0, symName: __ZNSt3__16vectorIN3glm3vecILi3EfLNS1_9qualifierE0EEENS_9allocatorIS4_EEE21__push_back_slow_pathIRKS4_EEvOT_, symObjAddr: 0x51CC, symBinAddr: 0x1000098D8, symSize: 0xE0 }
  - { offsetInCU: 0x1922C, offset: 0x1922C, size: 0x8, addend: 0x0, symName: __ZNSt3__117__compressed_pairIPN3glm3vecILi3EfLNS1_9qualifierE0EEENS_9allocatorIS4_EEE5firstB7v160006Ev, symObjAddr: 0x52AC, symBinAddr: 0x1000099B8, symSize: 0x24 }
  - { offsetInCU: 0x19252, offset: 0x19252, size: 0x8, addend: 0x0, symName: __ZNSt3__122__compressed_pair_elemIPN3glm3vecILi3EfLNS1_9qualifierE0EEELi0ELb0EE5__getB7v160006Ev, symObjAddr: 0x52D0, symBinAddr: 0x1000099DC, symSize: 0x14 }
  - { offsetInCU: 0x19291, offset: 0x19291, size: 0x8, addend: 0x0, symName: __ZNSt3__16vectorIN3glm3vecILi3EfLNS1_9qualifierE0EEENS_9allocatorIS4_EEE21_ConstructTransactionC1B7v160006ERS7_m, symObjAddr: 0x52E4, symBinAddr: 0x1000099F0, symSize: 0x3C }
  - { offsetInCU: 0x192D9, offset: 0x192D9, size: 0x8, addend: 0x0, symName: __ZNSt3__116allocator_traitsINS_9allocatorIN3glm3vecILi3EfLNS2_9qualifierE0EEEEEE9constructB7v160006IS5_JRKS5_EvEEvRS6_PT_DpOT0_, symObjAddr: 0x5320, symBinAddr: 0x100009A2C, symSize: 0x34 }
  - { offsetInCU: 0x19330, offset: 0x19330, size: 0x8, addend: 0x0, symName: __ZNSt3__16vectorIN3glm3vecILi3EfLNS1_9qualifierE0EEENS_9allocatorIS4_EEE21_ConstructTransactionD1B7v160006Ev, symObjAddr: 0x5354, symBinAddr: 0x100009A60, symSize: 0x2C }
  - { offsetInCU: 0x1935A, offset: 0x1935A, size: 0x8, addend: 0x0, symName: __ZNSt3__16vectorIN3glm3vecILi3EfLNS1_9qualifierE0EEENS_9allocatorIS4_EEE21_ConstructTransactionC2B7v160006ERS7_m, symObjAddr: 0x5380, symBinAddr: 0x100009A8C, symSize: 0x4C }
  - { offsetInCU: 0x193A2, offset: 0x193A2, size: 0x8, addend: 0x0, symName: __ZNSt3__19allocatorIN3glm3vecILi3EfLNS1_9qualifierE0EEEE9constructB7v160006IS4_JRKS4_EEEvPT_DpOT0_, symObjAddr: 0x53CC, symBinAddr: 0x100009AD8, symSize: 0x30 }
  - { offsetInCU: 0x193F8, offset: 0x193F8, size: 0x8, addend: 0x0, symName: __ZNSt3__16vectorIN3glm3vecILi3EfLNS1_9qualifierE0EEENS_9allocatorIS4_EEE21_ConstructTransactionD2B7v160006Ev, symObjAddr: 0x53FC, symBinAddr: 0x100009B08, symSize: 0x20 }
  - { offsetInCU: 0x19422, offset: 0x19422, size: 0x8, addend: 0x0, symName: __ZNKSt3__16vectorIN3glm3vecILi3EfLNS1_9qualifierE0EEENS_9allocatorIS4_EEE11__recommendB7v160006Em, symObjAddr: 0x541C, symBinAddr: 0x100009B28, symSize: 0xB4 }
  - { offsetInCU: 0x19477, offset: 0x19477, size: 0x8, addend: 0x0, symName: __ZNSt3__114__split_bufferIN3glm3vecILi3EfLNS1_9qualifierE0EEERNS_9allocatorIS4_EEEC1EmmS7_, symObjAddr: 0x54D0, symBinAddr: 0x100009BDC, symSize: 0x44 }
  - { offsetInCU: 0x194CD, offset: 0x194CD, size: 0x8, addend: 0x0, symName: __ZNSt3__114__split_bufferIN3glm3vecILi3EfLNS1_9qualifierE0EEERNS_9allocatorIS4_EEED1Ev, symObjAddr: 0x562C, symBinAddr: 0x100009D38, symSize: 0x2C }
  - { offsetInCU: 0x194F9, offset: 0x194F9, size: 0x8, addend: 0x0, symName: __ZNKSt3__16vectorIN3glm3vecILi3EfLNS1_9qualifierE0EEENS_9allocatorIS4_EEE8max_sizeEv, symObjAddr: 0x5658, symBinAddr: 0x100009D64, symSize: 0x74 }
  - { offsetInCU: 0x19521, offset: 0x19521, size: 0x8, addend: 0x0, symName: __ZNKSt3__16vectorIN3glm3vecILi3EfLNS1_9qualifierE0EEENS_9allocatorIS4_EEE20__throw_length_errorB7v160006Ev, symObjAddr: 0x56CC, symBinAddr: 0x100009DD8, symSize: 0x1C }
  - { offsetInCU: 0x19551, offset: 0x19551, size: 0x8, addend: 0x0, symName: __ZNSt3__116allocator_traitsINS_9allocatorIN3glm3vecILi3EfLNS2_9qualifierE0EEEEEE8max_sizeB7v160006IS6_vEEmRKS6_, symObjAddr: 0x5740, symBinAddr: 0x100009E4C, symSize: 0x24 }
  - { offsetInCU: 0x1957F, offset: 0x1957F, size: 0x8, addend: 0x0, symName: __ZNKSt3__16vectorIN3glm3vecILi3EfLNS1_9qualifierE0EEENS_9allocatorIS4_EEE7__allocB7v160006Ev, symObjAddr: 0x5764, symBinAddr: 0x100009E70, symSize: 0x28 }
  - { offsetInCU: 0x195A5, offset: 0x195A5, size: 0x8, addend: 0x0, symName: __ZNSt3__114numeric_limitsIlE3maxB7v160006Ev, symObjAddr: 0x578C, symBinAddr: 0x100009E98, symSize: 0x14 }
  - { offsetInCU: 0x195C3, offset: 0x195C3, size: 0x8, addend: 0x0, symName: __ZNKSt3__16__lessImmEclB7v160006ERKmS3_, symObjAddr: 0x57F4, symBinAddr: 0x100009F00, symSize: 0x34 }
  - { offsetInCU: 0x19605, offset: 0x19605, size: 0x8, addend: 0x0, symName: __ZNKSt3__19allocatorIN3glm3vecILi3EfLNS1_9qualifierE0EEEE8max_sizeB7v160006Ev, symObjAddr: 0x5828, symBinAddr: 0x100009F34, symSize: 0x18 }
  - { offsetInCU: 0x1962B, offset: 0x1962B, size: 0x8, addend: 0x0, symName: __ZNKSt3__117__compressed_pairIPN3glm3vecILi3EfLNS1_9qualifierE0EEENS_9allocatorIS4_EEE6secondB7v160006Ev, symObjAddr: 0x5840, symBinAddr: 0x100009F4C, symSize: 0x24 }
  - { offsetInCU: 0x19651, offset: 0x19651, size: 0x8, addend: 0x0, symName: __ZNKSt3__122__compressed_pair_elemINS_9allocatorIN3glm3vecILi3EfLNS2_9qualifierE0EEEEELi1ELb1EE5__getB7v160006Ev, symObjAddr: 0x5864, symBinAddr: 0x100009F70, symSize: 0x14 }
  - { offsetInCU: 0x19677, offset: 0x19677, size: 0x8, addend: 0x0, symName: __ZNSt3__123__libcpp_numeric_limitsIlLb1EE3maxB7v160006Ev, symObjAddr: 0x5878, symBinAddr: 0x100009F84, symSize: 0x8 }
  - { offsetInCU: 0x1968B, offset: 0x1968B, size: 0x8, addend: 0x0, symName: __ZNSt12length_errorC1B7v160006EPKc, symObjAddr: 0x58E4, symBinAddr: 0x100009FF0, symSize: 0x34 }
  - { offsetInCU: 0x196C3, offset: 0x196C3, size: 0x8, addend: 0x0, symName: __ZNSt12length_errorC2B7v160006EPKc, symObjAddr: 0x5918, symBinAddr: 0x10000A024, symSize: 0x4C }
  - { offsetInCU: 0x196FB, offset: 0x196FB, size: 0x8, addend: 0x0, symName: __ZNSt3__114__split_bufferIN3glm3vecILi3EfLNS1_9qualifierE0EEERNS_9allocatorIS4_EEEC2EmmS7_, symObjAddr: 0x59B8, symBinAddr: 0x10000A0C4, symSize: 0xE0 }
  - { offsetInCU: 0x1976F, offset: 0x1976F, size: 0x8, addend: 0x0, symName: __ZNSt3__117__compressed_pairIPN3glm3vecILi3EfLNS1_9qualifierE0EEERNS_9allocatorIS4_EEEC1B7v160006IDnS8_EEOT_OT0_, symObjAddr: 0x5A98, symBinAddr: 0x10000A1A4, symSize: 0x3C }
  - { offsetInCU: 0x197C7, offset: 0x197C7, size: 0x8, addend: 0x0, symName: __ZNSt3__114__split_bufferIN3glm3vecILi3EfLNS1_9qualifierE0EEERNS_9allocatorIS4_EEE7__allocB7v160006Ev, symObjAddr: 0x5B14, symBinAddr: 0x10000A220, symSize: 0x28 }
  - { offsetInCU: 0x197ED, offset: 0x197ED, size: 0x8, addend: 0x0, symName: __ZNSt3__114__split_bufferIN3glm3vecILi3EfLNS1_9qualifierE0EEERNS_9allocatorIS4_EEE9__end_capB7v160006Ev, symObjAddr: 0x5B3C, symBinAddr: 0x10000A248, symSize: 0x28 }
  - { offsetInCU: 0x19813, offset: 0x19813, size: 0x8, addend: 0x0, symName: __ZNSt3__117__compressed_pairIPN3glm3vecILi3EfLNS1_9qualifierE0EEERNS_9allocatorIS4_EEEC2B7v160006IDnS8_EEOT_OT0_, symObjAddr: 0x5B64, symBinAddr: 0x10000A270, symSize: 0x48 }
  - { offsetInCU: 0x1986B, offset: 0x1986B, size: 0x8, addend: 0x0, symName: __ZNSt3__122__compressed_pair_elemIRNS_9allocatorIN3glm3vecILi3EfLNS2_9qualifierE0EEEEELi1ELb0EEC2B7v160006IS7_vEEOT_, symObjAddr: 0x5BAC, symBinAddr: 0x10000A2B8, symSize: 0x20 }
  - { offsetInCU: 0x198AD, offset: 0x198AD, size: 0x8, addend: 0x0, symName: __ZNSt3__19allocatorIN3glm3vecILi3EfLNS1_9qualifierE0EEEE8allocateB7v160006Em, symObjAddr: 0x5BCC, symBinAddr: 0x10000A2D8, symSize: 0x8C }
  - { offsetInCU: 0x198E1, offset: 0x198E1, size: 0x8, addend: 0x0, symName: __ZNSt3__117__compressed_pairIPN3glm3vecILi3EfLNS1_9qualifierE0EEERNS_9allocatorIS4_EEE6secondB7v160006Ev, symObjAddr: 0x5C58, symBinAddr: 0x10000A364, symSize: 0x28 }
  - { offsetInCU: 0x19907, offset: 0x19907, size: 0x8, addend: 0x0, symName: __ZNSt3__122__compressed_pair_elemIRNS_9allocatorIN3glm3vecILi3EfLNS2_9qualifierE0EEEEELi1ELb0EE5__getB7v160006Ev, symObjAddr: 0x5C80, symBinAddr: 0x10000A38C, symSize: 0x18 }
  - { offsetInCU: 0x1992D, offset: 0x1992D, size: 0x8, addend: 0x0, symName: __ZNSt3__117__compressed_pairIPN3glm3vecILi3EfLNS1_9qualifierE0EEERNS_9allocatorIS4_EEE5firstB7v160006Ev, symObjAddr: 0x5C98, symBinAddr: 0x10000A3A4, symSize: 0x24 }
  - { offsetInCU: 0x19953, offset: 0x19953, size: 0x8, addend: 0x0, symName: __ZNSt3__116reverse_iteratorIPN3glm3vecILi3EfLNS1_9qualifierE0EEEEC1B7v160006ES5_, symObjAddr: 0x5DF0, symBinAddr: 0x10000A4FC, symSize: 0x34 }
  - { offsetInCU: 0x1998B, offset: 0x1998B, size: 0x8, addend: 0x0, symName: __ZNKSt3__116reverse_iteratorIPN3glm3vecILi3EfLNS1_9qualifierE0EEEE4baseB7v160006Ev, symObjAddr: 0x5E24, symBinAddr: 0x10000A530, symSize: 0x18 }
  - { offsetInCU: 0x199B1, offset: 0x199B1, size: 0x8, addend: 0x0, symName: __ZNKSt3__16vectorIN3glm3vecILi3EfLNS1_9qualifierE0EEENS_9allocatorIS4_EEE14__annotate_newB7v160006Em, symObjAddr: 0x5E78, symBinAddr: 0x10000A584, symSize: 0xC8 }
  - { offsetInCU: 0x199E6, offset: 0x199E6, size: 0x8, addend: 0x0, symName: __ZNSt3__129_AllocatorDestroyRangeReverseINS_9allocatorIN3glm3vecILi3EfLNS2_9qualifierE0EEEEENS_16reverse_iteratorIPS5_EEEC1B7v160006ERS6_RS9_SC_, symObjAddr: 0x5F9C, symBinAddr: 0x10000A6A8, symSize: 0x44 }
  - { offsetInCU: 0x19A3D, offset: 0x19A3D, size: 0x8, addend: 0x0, symName: __ZNKSt3__116reverse_iteratorIPN3glm3vecILi3EfLNS1_9qualifierE0EEEEdeB7v160006Ev, symObjAddr: 0x604C, symBinAddr: 0x10000A758, symSize: 0x28 }
  - { offsetInCU: 0x19A71, offset: 0x19A71, size: 0x8, addend: 0x0, symName: __ZNSt3__116reverse_iteratorIPN3glm3vecILi3EfLNS1_9qualifierE0EEEEppB7v160006Ev, symObjAddr: 0x6074, symBinAddr: 0x10000A780, symSize: 0x20 }
  - { offsetInCU: 0x19A97, offset: 0x19A97, size: 0x8, addend: 0x0, symName: __ZNSt3__128__exception_guard_exceptionsINS_29_AllocatorDestroyRangeReverseINS_9allocatorIN3glm3vecILi3EfLNS3_9qualifierE0EEEEENS_16reverse_iteratorIPS6_EEEEE10__completeB7v160006Ev, symObjAddr: 0x6094, symBinAddr: 0x10000A7A0, symSize: 0x1C }
  - { offsetInCU: 0x19ABD, offset: 0x19ABD, size: 0x8, addend: 0x0, symName: __ZNSt3__128__exception_guard_exceptionsINS_29_AllocatorDestroyRangeReverseINS_9allocatorIN3glm3vecILi3EfLNS3_9qualifierE0EEEEENS_16reverse_iteratorIPS6_EEEEED1B7v160006Ev, symObjAddr: 0x60B0, symBinAddr: 0x10000A7BC, symSize: 0x2C }
  - { offsetInCU: 0x19AE7, offset: 0x19AE7, size: 0x8, addend: 0x0, symName: __ZNSt3__128__exception_guard_exceptionsINS_29_AllocatorDestroyRangeReverseINS_9allocatorIN3glm3vecILi3EfLNS3_9qualifierE0EEEEENS_16reverse_iteratorIPS6_EEEEEC1B7v160006ESB_, symObjAddr: 0x60DC, symBinAddr: 0x10000A7E8, symSize: 0x34 }
  - { offsetInCU: 0x19B20, offset: 0x19B20, size: 0x8, addend: 0x0, symName: __ZNSt3__128__exception_guard_exceptionsINS_29_AllocatorDestroyRangeReverseINS_9allocatorIN3glm3vecILi3EfLNS3_9qualifierE0EEEEENS_16reverse_iteratorIPS6_EEEEEC2B7v160006ESB_, symObjAddr: 0x6110, symBinAddr: 0x10000A81C, symSize: 0x30 }
  - { offsetInCU: 0x19B59, offset: 0x19B59, size: 0x8, addend: 0x0, symName: __ZNSt3__129_AllocatorDestroyRangeReverseINS_9allocatorIN3glm3vecILi3EfLNS2_9qualifierE0EEEEENS_16reverse_iteratorIPS5_EEEC2B7v160006ERS6_RS9_SC_, symObjAddr: 0x6140, symBinAddr: 0x10000A84C, symSize: 0x38 }
  - { offsetInCU: 0x19BB5, offset: 0x19BB5, size: 0x8, addend: 0x0, symName: __ZNSt3__119__to_address_helperINS_16reverse_iteratorIPN3glm3vecILi3EfLNS2_9qualifierE0EEEEEvE6__callB7v160006ERKS7_, symObjAddr: 0x6178, symBinAddr: 0x10000A884, symSize: 0x4C }
  - { offsetInCU: 0x19BD8, offset: 0x19BD8, size: 0x8, addend: 0x0, symName: __ZNKSt3__116reverse_iteratorIPN3glm3vecILi3EfLNS1_9qualifierE0EEEEptB7v160006Ev, symObjAddr: 0x61C4, symBinAddr: 0x10000A8D0, symSize: 0x24 }
  - { offsetInCU: 0x19BFE, offset: 0x19BFE, size: 0x8, addend: 0x0, symName: __ZNSt3__128__exception_guard_exceptionsINS_29_AllocatorDestroyRangeReverseINS_9allocatorIN3glm3vecILi3EfLNS3_9qualifierE0EEEEENS_16reverse_iteratorIPS6_EEEEED2B7v160006Ev, symObjAddr: 0x61E8, symBinAddr: 0x10000A8F4, symSize: 0x48 }
  - { offsetInCU: 0x19C28, offset: 0x19C28, size: 0x8, addend: 0x0, symName: __ZNKSt3__129_AllocatorDestroyRangeReverseINS_9allocatorIN3glm3vecILi3EfLNS2_9qualifierE0EEEEENS_16reverse_iteratorIPS5_EEEclB7v160006Ev, symObjAddr: 0x6230, symBinAddr: 0x10000A93C, symSize: 0xB4 }
  - { offsetInCU: 0x19C4F, offset: 0x19C4F, size: 0x8, addend: 0x0, symName: __ZNSt3__116reverse_iteratorINS0_IPN3glm3vecILi3EfLNS1_9qualifierE0EEEEEEC1B7v160006ES6_, symObjAddr: 0x6354, symBinAddr: 0x10000AA60, symSize: 0x3C }
  - { offsetInCU: 0x19C87, offset: 0x19C87, size: 0x8, addend: 0x0, symName: __ZNSt3__116reverse_iteratorINS0_IPN3glm3vecILi3EfLNS1_9qualifierE0EEEEEEppB7v160006Ev, symObjAddr: 0x6414, symBinAddr: 0x10000AB20, symSize: 0x30 }
  - { offsetInCU: 0x19CAD, offset: 0x19CAD, size: 0x8, addend: 0x0, symName: __ZNKSt3__116reverse_iteratorINS0_IPN3glm3vecILi3EfLNS1_9qualifierE0EEEEEE4baseB7v160006Ev, symObjAddr: 0x6444, symBinAddr: 0x10000AB50, symSize: 0x24 }
  - { offsetInCU: 0x19CD8, offset: 0x19CD8, size: 0x8, addend: 0x0, symName: __ZNSt3__119__to_address_helperINS_16reverse_iteratorINS1_IPN3glm3vecILi3EfLNS2_9qualifierE0EEEEEEEvE6__callB7v160006ERKS8_, symObjAddr: 0x6468, symBinAddr: 0x10000AB74, symSize: 0x4C }
  - { offsetInCU: 0x19CFB, offset: 0x19CFB, size: 0x8, addend: 0x0, symName: __ZNKSt3__116reverse_iteratorINS0_IPN3glm3vecILi3EfLNS1_9qualifierE0EEEEEEptB7v160006Ev, symObjAddr: 0x64B4, symBinAddr: 0x10000ABC0, symSize: 0x24 }
  - { offsetInCU: 0x19D21, offset: 0x19D21, size: 0x8, addend: 0x0, symName: __ZNKSt3__116reverse_iteratorINS0_IPN3glm3vecILi3EfLNS1_9qualifierE0EEEEEEdeB7v160006Ev, symObjAddr: 0x64D8, symBinAddr: 0x10000ABE4, symSize: 0x34 }
  - { offsetInCU: 0x19D55, offset: 0x19D55, size: 0x8, addend: 0x0, symName: __ZNSt3__116reverse_iteratorIPN3glm3vecILi3EfLNS1_9qualifierE0EEEEmmB7v160006Ev, symObjAddr: 0x650C, symBinAddr: 0x10000AC18, symSize: 0x20 }
  - { offsetInCU: 0x19D7B, offset: 0x19D7B, size: 0x8, addend: 0x0, symName: __ZNSt3__116reverse_iteratorINS0_IPN3glm3vecILi3EfLNS1_9qualifierE0EEEEEEC2B7v160006ES6_, symObjAddr: 0x652C, symBinAddr: 0x10000AC38, symSize: 0x2C }
  - { offsetInCU: 0x19DB3, offset: 0x19DB3, size: 0x8, addend: 0x0, symName: __ZNSt3__116reverse_iteratorIPN3glm3vecILi3EfLNS1_9qualifierE0EEEEC2B7v160006ES5_, symObjAddr: 0x6558, symBinAddr: 0x10000AC64, symSize: 0x28 }
  - { offsetInCU: 0x19DEB, offset: 0x19DEB, size: 0x8, addend: 0x0, symName: __ZNSt3__114__split_bufferIN3glm3vecILi3EfLNS1_9qualifierE0EEERNS_9allocatorIS4_EEED2Ev, symObjAddr: 0x6580, symBinAddr: 0x10000AC8C, symSize: 0x80 }
  - { offsetInCU: 0x19E17, offset: 0x19E17, size: 0x8, addend: 0x0, symName: __ZNSt3__114__split_bufferIN3glm3vecILi3EfLNS1_9qualifierE0EEERNS_9allocatorIS4_EEE5clearB7v160006Ev, symObjAddr: 0x6600, symBinAddr: 0x10000AD0C, symSize: 0x28 }
  - { offsetInCU: 0x19E3D, offset: 0x19E3D, size: 0x8, addend: 0x0, symName: __ZNKSt3__114__split_bufferIN3glm3vecILi3EfLNS1_9qualifierE0EEERNS_9allocatorIS4_EEE8capacityB7v160006Ev, symObjAddr: 0x6628, symBinAddr: 0x10000AD34, symSize: 0x40 }
  - { offsetInCU: 0x19E63, offset: 0x19E63, size: 0x8, addend: 0x0, symName: __ZNSt3__114__split_bufferIN3glm3vecILi3EfLNS1_9qualifierE0EEERNS_9allocatorIS4_EEE17__destruct_at_endB7v160006EPS4_, symObjAddr: 0x6668, symBinAddr: 0x10000AD74, symSize: 0x2C }
  - { offsetInCU: 0x19E97, offset: 0x19E97, size: 0x8, addend: 0x0, symName: __ZNSt3__114__split_bufferIN3glm3vecILi3EfLNS1_9qualifierE0EEERNS_9allocatorIS4_EEE17__destruct_at_endB7v160006EPS4_NS_17integral_constantIbLb0EEE, symObjAddr: 0x6694, symBinAddr: 0x10000ADA0, symSize: 0x94 }
  - { offsetInCU: 0x19ED8, offset: 0x19ED8, size: 0x8, addend: 0x0, symName: __ZNKSt3__114__split_bufferIN3glm3vecILi3EfLNS1_9qualifierE0EEERNS_9allocatorIS4_EEE9__end_capB7v160006Ev, symObjAddr: 0x6728, symBinAddr: 0x10000AE34, symSize: 0x28 }
  - { offsetInCU: 0x19EFE, offset: 0x19EFE, size: 0x8, addend: 0x0, symName: __ZNKSt3__117__compressed_pairIPN3glm3vecILi3EfLNS1_9qualifierE0EEERNS_9allocatorIS4_EEE5firstB7v160006Ev, symObjAddr: 0x6750, symBinAddr: 0x10000AE5C, symSize: 0x24 }
  - { offsetInCU: 0x19F24, offset: 0x19F24, size: 0x8, addend: 0x0, symName: __ZN3glm3vecILi2EfLNS_9qualifierE0EEC2Ev, symObjAddr: 0x6774, symBinAddr: 0x10000AE80, symSize: 0x14 }
  - { offsetInCU: 0x19F50, offset: 0x19F50, size: 0x8, addend: 0x0, symName: __ZNSt3__16vectorIN3glm3vecILi2EfLNS1_9qualifierE0EEENS_9allocatorIS4_EEE9__end_capB7v160006Ev, symObjAddr: 0x6788, symBinAddr: 0x10000AE94, symSize: 0x28 }
  - { offsetInCU: 0x19F76, offset: 0x19F76, size: 0x8, addend: 0x0, symName: __ZNSt3__16vectorIN3glm3vecILi2EfLNS1_9qualifierE0EEENS_9allocatorIS4_EEE22__construct_one_at_endB7v160006IJRKS4_EEEvDpOT_, symObjAddr: 0x67B0, symBinAddr: 0x10000AEBC, symSize: 0x98 }
  - { offsetInCU: 0x19FC5, offset: 0x19FC5, size: 0x8, addend: 0x0, symName: __ZNSt3__16vectorIN3glm3vecILi2EfLNS1_9qualifierE0EEENS_9allocatorIS4_EEE21__push_back_slow_pathIRKS4_EEvOT_, symObjAddr: 0x6848, symBinAddr: 0x10000AF54, symSize: 0xE0 }
  - { offsetInCU: 0x1A023, offset: 0x1A023, size: 0x8, addend: 0x0, symName: __ZNSt3__117__compressed_pairIPN3glm3vecILi2EfLNS1_9qualifierE0EEENS_9allocatorIS4_EEE5firstB7v160006Ev, symObjAddr: 0x6928, symBinAddr: 0x10000B034, symSize: 0x24 }
  - { offsetInCU: 0x1A049, offset: 0x1A049, size: 0x8, addend: 0x0, symName: __ZNSt3__122__compressed_pair_elemIPN3glm3vecILi2EfLNS1_9qualifierE0EEELi0ELb0EE5__getB7v160006Ev, symObjAddr: 0x694C, symBinAddr: 0x10000B058, symSize: 0x14 }
  - { offsetInCU: 0x1A088, offset: 0x1A088, size: 0x8, addend: 0x0, symName: __ZNSt3__16vectorIN3glm3vecILi2EfLNS1_9qualifierE0EEENS_9allocatorIS4_EEE21_ConstructTransactionC1B7v160006ERS7_m, symObjAddr: 0x6960, symBinAddr: 0x10000B06C, symSize: 0x3C }
  - { offsetInCU: 0x1A0D0, offset: 0x1A0D0, size: 0x8, addend: 0x0, symName: __ZNSt3__116allocator_traitsINS_9allocatorIN3glm3vecILi2EfLNS2_9qualifierE0EEEEEE9constructB7v160006IS5_JRKS5_EvEEvRS6_PT_DpOT0_, symObjAddr: 0x699C, symBinAddr: 0x10000B0A8, symSize: 0x34 }
  - { offsetInCU: 0x1A127, offset: 0x1A127, size: 0x8, addend: 0x0, symName: __ZNSt3__16vectorIN3glm3vecILi2EfLNS1_9qualifierE0EEENS_9allocatorIS4_EEE21_ConstructTransactionD1B7v160006Ev, symObjAddr: 0x69D0, symBinAddr: 0x10000B0DC, symSize: 0x2C }
  - { offsetInCU: 0x1A151, offset: 0x1A151, size: 0x8, addend: 0x0, symName: __ZNSt3__16vectorIN3glm3vecILi2EfLNS1_9qualifierE0EEENS_9allocatorIS4_EEE21_ConstructTransactionC2B7v160006ERS7_m, symObjAddr: 0x69FC, symBinAddr: 0x10000B108, symSize: 0x44 }
  - { offsetInCU: 0x1A199, offset: 0x1A199, size: 0x8, addend: 0x0, symName: __ZNSt3__19allocatorIN3glm3vecILi2EfLNS1_9qualifierE0EEEE9constructB7v160006IS4_JRKS4_EEEvPT_DpOT0_, symObjAddr: 0x6A40, symBinAddr: 0x10000B14C, symSize: 0x30 }
  - { offsetInCU: 0x1A1EF, offset: 0x1A1EF, size: 0x8, addend: 0x0, symName: __ZNSt3__16vectorIN3glm3vecILi2EfLNS1_9qualifierE0EEENS_9allocatorIS4_EEE21_ConstructTransactionD2B7v160006Ev, symObjAddr: 0x6A70, symBinAddr: 0x10000B17C, symSize: 0x20 }
  - { offsetInCU: 0x1A219, offset: 0x1A219, size: 0x8, addend: 0x0, symName: __ZNKSt3__16vectorIN3glm3vecILi2EfLNS1_9qualifierE0EEENS_9allocatorIS4_EEE11__recommendB7v160006Em, symObjAddr: 0x6A90, symBinAddr: 0x10000B19C, symSize: 0xB4 }
  - { offsetInCU: 0x1A26E, offset: 0x1A26E, size: 0x8, addend: 0x0, symName: __ZNSt3__114__split_bufferIN3glm3vecILi2EfLNS1_9qualifierE0EEERNS_9allocatorIS4_EEEC1EmmS7_, symObjAddr: 0x6B44, symBinAddr: 0x10000B250, symSize: 0x44 }
  - { offsetInCU: 0x1A2C4, offset: 0x1A2C4, size: 0x8, addend: 0x0, symName: __ZNSt3__114__split_bufferIN3glm3vecILi2EfLNS1_9qualifierE0EEERNS_9allocatorIS4_EEED1Ev, symObjAddr: 0x6CA0, symBinAddr: 0x10000B3AC, symSize: 0x2C }
  - { offsetInCU: 0x1A2F0, offset: 0x1A2F0, size: 0x8, addend: 0x0, symName: __ZNKSt3__16vectorIN3glm3vecILi2EfLNS1_9qualifierE0EEENS_9allocatorIS4_EEE8max_sizeEv, symObjAddr: 0x6CCC, symBinAddr: 0x10000B3D8, symSize: 0x74 }
  - { offsetInCU: 0x1A318, offset: 0x1A318, size: 0x8, addend: 0x0, symName: __ZNKSt3__16vectorIN3glm3vecILi2EfLNS1_9qualifierE0EEENS_9allocatorIS4_EEE20__throw_length_errorB7v160006Ev, symObjAddr: 0x6D40, symBinAddr: 0x10000B44C, symSize: 0x1C }
  - { offsetInCU: 0x1A348, offset: 0x1A348, size: 0x8, addend: 0x0, symName: __ZNSt3__116allocator_traitsINS_9allocatorIN3glm3vecILi2EfLNS2_9qualifierE0EEEEEE8max_sizeB7v160006IS6_vEEmRKS6_, symObjAddr: 0x6D5C, symBinAddr: 0x10000B468, symSize: 0x24 }
  - { offsetInCU: 0x1A376, offset: 0x1A376, size: 0x8, addend: 0x0, symName: __ZNKSt3__16vectorIN3glm3vecILi2EfLNS1_9qualifierE0EEENS_9allocatorIS4_EEE7__allocB7v160006Ev, symObjAddr: 0x6D80, symBinAddr: 0x10000B48C, symSize: 0x28 }
  - { offsetInCU: 0x1A39C, offset: 0x1A39C, size: 0x8, addend: 0x0, symName: __ZNKSt3__19allocatorIN3glm3vecILi2EfLNS1_9qualifierE0EEEE8max_sizeB7v160006Ev, symObjAddr: 0x6DA8, symBinAddr: 0x10000B4B4, symSize: 0x14 }
  - { offsetInCU: 0x1A3C2, offset: 0x1A3C2, size: 0x8, addend: 0x0, symName: __ZNKSt3__117__compressed_pairIPN3glm3vecILi2EfLNS1_9qualifierE0EEENS_9allocatorIS4_EEE6secondB7v160006Ev, symObjAddr: 0x6DBC, symBinAddr: 0x10000B4C8, symSize: 0x24 }
  - { offsetInCU: 0x1A3E8, offset: 0x1A3E8, size: 0x8, addend: 0x0, symName: __ZNKSt3__122__compressed_pair_elemINS_9allocatorIN3glm3vecILi2EfLNS2_9qualifierE0EEEEELi1ELb1EE5__getB7v160006Ev, symObjAddr: 0x6DE0, symBinAddr: 0x10000B4EC, symSize: 0x14 }
  - { offsetInCU: 0x1A40E, offset: 0x1A40E, size: 0x8, addend: 0x0, symName: __ZNSt3__114__split_bufferIN3glm3vecILi2EfLNS1_9qualifierE0EEERNS_9allocatorIS4_EEEC2EmmS7_, symObjAddr: 0x6DF4, symBinAddr: 0x10000B500, symSize: 0xD4 }
  - { offsetInCU: 0x1A482, offset: 0x1A482, size: 0x8, addend: 0x0, symName: __ZNSt3__117__compressed_pairIPN3glm3vecILi2EfLNS1_9qualifierE0EEERNS_9allocatorIS4_EEEC1B7v160006IDnS8_EEOT_OT0_, symObjAddr: 0x6EC8, symBinAddr: 0x10000B5D4, symSize: 0x3C }
  - { offsetInCU: 0x1A4DA, offset: 0x1A4DA, size: 0x8, addend: 0x0, symName: __ZNSt3__114__split_bufferIN3glm3vecILi2EfLNS1_9qualifierE0EEERNS_9allocatorIS4_EEE7__allocB7v160006Ev, symObjAddr: 0x6F44, symBinAddr: 0x10000B650, symSize: 0x28 }
  - { offsetInCU: 0x1A500, offset: 0x1A500, size: 0x8, addend: 0x0, symName: __ZNSt3__114__split_bufferIN3glm3vecILi2EfLNS1_9qualifierE0EEERNS_9allocatorIS4_EEE9__end_capB7v160006Ev, symObjAddr: 0x6F6C, symBinAddr: 0x10000B678, symSize: 0x28 }
  - { offsetInCU: 0x1A526, offset: 0x1A526, size: 0x8, addend: 0x0, symName: __ZNSt3__117__compressed_pairIPN3glm3vecILi2EfLNS1_9qualifierE0EEERNS_9allocatorIS4_EEEC2B7v160006IDnS8_EEOT_OT0_, symObjAddr: 0x6F94, symBinAddr: 0x10000B6A0, symSize: 0x48 }
  - { offsetInCU: 0x1A57E, offset: 0x1A57E, size: 0x8, addend: 0x0, symName: __ZNSt3__122__compressed_pair_elemIRNS_9allocatorIN3glm3vecILi2EfLNS2_9qualifierE0EEEEELi1ELb0EEC2B7v160006IS7_vEEOT_, symObjAddr: 0x6FDC, symBinAddr: 0x10000B6E8, symSize: 0x20 }
  - { offsetInCU: 0x1A5C0, offset: 0x1A5C0, size: 0x8, addend: 0x0, symName: __ZNSt3__19allocatorIN3glm3vecILi2EfLNS1_9qualifierE0EEEE8allocateB7v160006Em, symObjAddr: 0x6FFC, symBinAddr: 0x10000B708, symSize: 0x84 }
  - { offsetInCU: 0x1A5F4, offset: 0x1A5F4, size: 0x8, addend: 0x0, symName: __ZNSt3__117__compressed_pairIPN3glm3vecILi2EfLNS1_9qualifierE0EEERNS_9allocatorIS4_EEE6secondB7v160006Ev, symObjAddr: 0x7080, symBinAddr: 0x10000B78C, symSize: 0x28 }
  - { offsetInCU: 0x1A61A, offset: 0x1A61A, size: 0x8, addend: 0x0, symName: __ZNSt3__122__compressed_pair_elemIRNS_9allocatorIN3glm3vecILi2EfLNS2_9qualifierE0EEEEELi1ELb0EE5__getB7v160006Ev, symObjAddr: 0x70A8, symBinAddr: 0x10000B7B4, symSize: 0x18 }
  - { offsetInCU: 0x1A640, offset: 0x1A640, size: 0x8, addend: 0x0, symName: __ZNSt3__117__compressed_pairIPN3glm3vecILi2EfLNS1_9qualifierE0EEERNS_9allocatorIS4_EEE5firstB7v160006Ev, symObjAddr: 0x70C0, symBinAddr: 0x10000B7CC, symSize: 0x24 }
  - { offsetInCU: 0x1A666, offset: 0x1A666, size: 0x8, addend: 0x0, symName: __ZNSt3__116reverse_iteratorIPN3glm3vecILi2EfLNS1_9qualifierE0EEEEC1B7v160006ES5_, symObjAddr: 0x7218, symBinAddr: 0x10000B924, symSize: 0x34 }
  - { offsetInCU: 0x1A69E, offset: 0x1A69E, size: 0x8, addend: 0x0, symName: __ZNKSt3__116reverse_iteratorIPN3glm3vecILi2EfLNS1_9qualifierE0EEEE4baseB7v160006Ev, symObjAddr: 0x724C, symBinAddr: 0x10000B958, symSize: 0x18 }
  - { offsetInCU: 0x1A6C4, offset: 0x1A6C4, size: 0x8, addend: 0x0, symName: __ZNKSt3__16vectorIN3glm3vecILi2EfLNS1_9qualifierE0EEENS_9allocatorIS4_EEE14__annotate_newB7v160006Em, symObjAddr: 0x72A0, symBinAddr: 0x10000B9AC, symSize: 0xAC }
  - { offsetInCU: 0x1A6F9, offset: 0x1A6F9, size: 0x8, addend: 0x0, symName: __ZNSt3__129_AllocatorDestroyRangeReverseINS_9allocatorIN3glm3vecILi2EfLNS2_9qualifierE0EEEEENS_16reverse_iteratorIPS5_EEEC1B7v160006ERS6_RS9_SC_, symObjAddr: 0x73A8, symBinAddr: 0x10000BAB4, symSize: 0x44 }
  - { offsetInCU: 0x1A750, offset: 0x1A750, size: 0x8, addend: 0x0, symName: __ZNKSt3__116reverse_iteratorIPN3glm3vecILi2EfLNS1_9qualifierE0EEEEdeB7v160006Ev, symObjAddr: 0x7458, symBinAddr: 0x10000BB64, symSize: 0x28 }
  - { offsetInCU: 0x1A784, offset: 0x1A784, size: 0x8, addend: 0x0, symName: __ZNSt3__116reverse_iteratorIPN3glm3vecILi2EfLNS1_9qualifierE0EEEEppB7v160006Ev, symObjAddr: 0x7480, symBinAddr: 0x10000BB8C, symSize: 0x20 }
  - { offsetInCU: 0x1A7AA, offset: 0x1A7AA, size: 0x8, addend: 0x0, symName: __ZNSt3__128__exception_guard_exceptionsINS_29_AllocatorDestroyRangeReverseINS_9allocatorIN3glm3vecILi2EfLNS3_9qualifierE0EEEEENS_16reverse_iteratorIPS6_EEEEE10__completeB7v160006Ev, symObjAddr: 0x74A0, symBinAddr: 0x10000BBAC, symSize: 0x1C }
  - { offsetInCU: 0x1A7D0, offset: 0x1A7D0, size: 0x8, addend: 0x0, symName: __ZNSt3__128__exception_guard_exceptionsINS_29_AllocatorDestroyRangeReverseINS_9allocatorIN3glm3vecILi2EfLNS3_9qualifierE0EEEEENS_16reverse_iteratorIPS6_EEEEED1B7v160006Ev, symObjAddr: 0x74BC, symBinAddr: 0x10000BBC8, symSize: 0x2C }
  - { offsetInCU: 0x1A7FA, offset: 0x1A7FA, size: 0x8, addend: 0x0, symName: __ZNSt3__128__exception_guard_exceptionsINS_29_AllocatorDestroyRangeReverseINS_9allocatorIN3glm3vecILi2EfLNS3_9qualifierE0EEEEENS_16reverse_iteratorIPS6_EEEEEC1B7v160006ESB_, symObjAddr: 0x74E8, symBinAddr: 0x10000BBF4, symSize: 0x34 }
  - { offsetInCU: 0x1A833, offset: 0x1A833, size: 0x8, addend: 0x0, symName: __ZNSt3__128__exception_guard_exceptionsINS_29_AllocatorDestroyRangeReverseINS_9allocatorIN3glm3vecILi2EfLNS3_9qualifierE0EEEEENS_16reverse_iteratorIPS6_EEEEEC2B7v160006ESB_, symObjAddr: 0x751C, symBinAddr: 0x10000BC28, symSize: 0x30 }
  - { offsetInCU: 0x1A86C, offset: 0x1A86C, size: 0x8, addend: 0x0, symName: __ZNSt3__129_AllocatorDestroyRangeReverseINS_9allocatorIN3glm3vecILi2EfLNS2_9qualifierE0EEEEENS_16reverse_iteratorIPS5_EEEC2B7v160006ERS6_RS9_SC_, symObjAddr: 0x754C, symBinAddr: 0x10000BC58, symSize: 0x38 }
  - { offsetInCU: 0x1A8C8, offset: 0x1A8C8, size: 0x8, addend: 0x0, symName: __ZNSt3__119__to_address_helperINS_16reverse_iteratorIPN3glm3vecILi2EfLNS2_9qualifierE0EEEEEvE6__callB7v160006ERKS7_, symObjAddr: 0x7584, symBinAddr: 0x10000BC90, symSize: 0x4C }
  - { offsetInCU: 0x1A8EB, offset: 0x1A8EB, size: 0x8, addend: 0x0, symName: __ZNKSt3__116reverse_iteratorIPN3glm3vecILi2EfLNS1_9qualifierE0EEEEptB7v160006Ev, symObjAddr: 0x75D0, symBinAddr: 0x10000BCDC, symSize: 0x24 }
  - { offsetInCU: 0x1A911, offset: 0x1A911, size: 0x8, addend: 0x0, symName: __ZNSt3__128__exception_guard_exceptionsINS_29_AllocatorDestroyRangeReverseINS_9allocatorIN3glm3vecILi2EfLNS3_9qualifierE0EEEEENS_16reverse_iteratorIPS6_EEEEED2B7v160006Ev, symObjAddr: 0x75F4, symBinAddr: 0x10000BD00, symSize: 0x48 }
  - { offsetInCU: 0x1A93B, offset: 0x1A93B, size: 0x8, addend: 0x0, symName: __ZNKSt3__129_AllocatorDestroyRangeReverseINS_9allocatorIN3glm3vecILi2EfLNS2_9qualifierE0EEEEENS_16reverse_iteratorIPS5_EEEclB7v160006Ev, symObjAddr: 0x763C, symBinAddr: 0x10000BD48, symSize: 0xB4 }
  - { offsetInCU: 0x1A962, offset: 0x1A962, size: 0x8, addend: 0x0, symName: __ZNSt3__116reverse_iteratorINS0_IPN3glm3vecILi2EfLNS1_9qualifierE0EEEEEEC1B7v160006ES6_, symObjAddr: 0x7760, symBinAddr: 0x10000BE6C, symSize: 0x3C }
  - { offsetInCU: 0x1A99A, offset: 0x1A99A, size: 0x8, addend: 0x0, symName: __ZNSt3__116reverse_iteratorINS0_IPN3glm3vecILi2EfLNS1_9qualifierE0EEEEEEppB7v160006Ev, symObjAddr: 0x7820, symBinAddr: 0x10000BF2C, symSize: 0x30 }
  - { offsetInCU: 0x1A9C0, offset: 0x1A9C0, size: 0x8, addend: 0x0, symName: __ZNKSt3__116reverse_iteratorINS0_IPN3glm3vecILi2EfLNS1_9qualifierE0EEEEEE4baseB7v160006Ev, symObjAddr: 0x7850, symBinAddr: 0x10000BF5C, symSize: 0x24 }
  - { offsetInCU: 0x1A9EB, offset: 0x1A9EB, size: 0x8, addend: 0x0, symName: __ZNSt3__119__to_address_helperINS_16reverse_iteratorINS1_IPN3glm3vecILi2EfLNS2_9qualifierE0EEEEEEEvE6__callB7v160006ERKS8_, symObjAddr: 0x7874, symBinAddr: 0x10000BF80, symSize: 0x4C }
  - { offsetInCU: 0x1AA0E, offset: 0x1AA0E, size: 0x8, addend: 0x0, symName: __ZNKSt3__116reverse_iteratorINS0_IPN3glm3vecILi2EfLNS1_9qualifierE0EEEEEEptB7v160006Ev, symObjAddr: 0x78C0, symBinAddr: 0x10000BFCC, symSize: 0x24 }
  - { offsetInCU: 0x1AA34, offset: 0x1AA34, size: 0x8, addend: 0x0, symName: __ZNKSt3__116reverse_iteratorINS0_IPN3glm3vecILi2EfLNS1_9qualifierE0EEEEEEdeB7v160006Ev, symObjAddr: 0x78E4, symBinAddr: 0x10000BFF0, symSize: 0x34 }
  - { offsetInCU: 0x1AA68, offset: 0x1AA68, size: 0x8, addend: 0x0, symName: __ZNSt3__116reverse_iteratorIPN3glm3vecILi2EfLNS1_9qualifierE0EEEEmmB7v160006Ev, symObjAddr: 0x7918, symBinAddr: 0x10000C024, symSize: 0x20 }
  - { offsetInCU: 0x1AA8E, offset: 0x1AA8E, size: 0x8, addend: 0x0, symName: __ZNSt3__116reverse_iteratorINS0_IPN3glm3vecILi2EfLNS1_9qualifierE0EEEEEEC2B7v160006ES6_, symObjAddr: 0x7938, symBinAddr: 0x10000C044, symSize: 0x2C }
  - { offsetInCU: 0x1AAC6, offset: 0x1AAC6, size: 0x8, addend: 0x0, symName: __ZNSt3__116reverse_iteratorIPN3glm3vecILi2EfLNS1_9qualifierE0EEEEC2B7v160006ES5_, symObjAddr: 0x7964, symBinAddr: 0x10000C070, symSize: 0x28 }
  - { offsetInCU: 0x1AAFE, offset: 0x1AAFE, size: 0x8, addend: 0x0, symName: __ZNSt3__114__split_bufferIN3glm3vecILi2EfLNS1_9qualifierE0EEERNS_9allocatorIS4_EEED2Ev, symObjAddr: 0x798C, symBinAddr: 0x10000C098, symSize: 0x80 }
  - { offsetInCU: 0x1AB2A, offset: 0x1AB2A, size: 0x8, addend: 0x0, symName: __ZNSt3__114__split_bufferIN3glm3vecILi2EfLNS1_9qualifierE0EEERNS_9allocatorIS4_EEE5clearB7v160006Ev, symObjAddr: 0x7A0C, symBinAddr: 0x10000C118, symSize: 0x28 }
  - { offsetInCU: 0x1AB50, offset: 0x1AB50, size: 0x8, addend: 0x0, symName: __ZNKSt3__114__split_bufferIN3glm3vecILi2EfLNS1_9qualifierE0EEERNS_9allocatorIS4_EEE8capacityB7v160006Ev, symObjAddr: 0x7A34, symBinAddr: 0x10000C140, symSize: 0x40 }
  - { offsetInCU: 0x1AB76, offset: 0x1AB76, size: 0x8, addend: 0x0, symName: __ZNSt3__114__split_bufferIN3glm3vecILi2EfLNS1_9qualifierE0EEERNS_9allocatorIS4_EEE17__destruct_at_endB7v160006EPS4_, symObjAddr: 0x7A74, symBinAddr: 0x10000C180, symSize: 0x2C }
  - { offsetInCU: 0x1ABAA, offset: 0x1ABAA, size: 0x8, addend: 0x0, symName: __ZNSt3__114__split_bufferIN3glm3vecILi2EfLNS1_9qualifierE0EEERNS_9allocatorIS4_EEE17__destruct_at_endB7v160006EPS4_NS_17integral_constantIbLb0EEE, symObjAddr: 0x7AA0, symBinAddr: 0x10000C1AC, symSize: 0x94 }
  - { offsetInCU: 0x1ABEB, offset: 0x1ABEB, size: 0x8, addend: 0x0, symName: __ZNKSt3__114__split_bufferIN3glm3vecILi2EfLNS1_9qualifierE0EEERNS_9allocatorIS4_EEE9__end_capB7v160006Ev, symObjAddr: 0x7B34, symBinAddr: 0x10000C240, symSize: 0x28 }
  - { offsetInCU: 0x1AC11, offset: 0x1AC11, size: 0x8, addend: 0x0, symName: __ZNKSt3__117__compressed_pairIPN3glm3vecILi2EfLNS1_9qualifierE0EEERNS_9allocatorIS4_EEE5firstB7v160006Ev, symObjAddr: 0x7B5C, symBinAddr: 0x10000C268, symSize: 0x24 }
  - { offsetInCU: 0x1AC37, offset: 0x1AC37, size: 0x8, addend: 0x0, symName: __ZNSt3__16vectorI4FaceNS_9allocatorIS1_EEE9__end_capB7v160006Ev, symObjAddr: 0x7B80, symBinAddr: 0x10000C28C, symSize: 0x28 }
  - { offsetInCU: 0x1AC5D, offset: 0x1AC5D, size: 0x8, addend: 0x0, symName: __ZNSt3__16vectorI4FaceNS_9allocatorIS1_EEE22__construct_one_at_endB7v160006IJRKS1_EEEvDpOT_, symObjAddr: 0x7BA8, symBinAddr: 0x10000C2B4, symSize: 0x98 }
  - { offsetInCU: 0x1ACAC, offset: 0x1ACAC, size: 0x8, addend: 0x0, symName: __ZNSt3__16vectorI4FaceNS_9allocatorIS1_EEE21__push_back_slow_pathIRKS1_EEvOT_, symObjAddr: 0x7C40, symBinAddr: 0x10000C34C, symSize: 0xE0 }
  - { offsetInCU: 0x1AD0A, offset: 0x1AD0A, size: 0x8, addend: 0x0, symName: __ZNSt3__117__compressed_pairIP4FaceNS_9allocatorIS1_EEE5firstB7v160006Ev, symObjAddr: 0x7D20, symBinAddr: 0x10000C42C, symSize: 0x24 }
  - { offsetInCU: 0x1AD30, offset: 0x1AD30, size: 0x8, addend: 0x0, symName: __ZNSt3__122__compressed_pair_elemIP4FaceLi0ELb0EE5__getB7v160006Ev, symObjAddr: 0x7D44, symBinAddr: 0x10000C450, symSize: 0x14 }
  - { offsetInCU: 0x1AD6F, offset: 0x1AD6F, size: 0x8, addend: 0x0, symName: __ZNSt3__16vectorI4FaceNS_9allocatorIS1_EEE21_ConstructTransactionC1B7v160006ERS4_m, symObjAddr: 0x7D58, symBinAddr: 0x10000C464, symSize: 0x3C }
  - { offsetInCU: 0x1ADB7, offset: 0x1ADB7, size: 0x8, addend: 0x0, symName: __ZNSt3__116allocator_traitsINS_9allocatorI4FaceEEE9constructB7v160006IS2_JRKS2_EvEEvRS3_PT_DpOT0_, symObjAddr: 0x7D94, symBinAddr: 0x10000C4A0, symSize: 0x34 }
  - { offsetInCU: 0x1AE0E, offset: 0x1AE0E, size: 0x8, addend: 0x0, symName: __ZNSt3__16vectorI4FaceNS_9allocatorIS1_EEE21_ConstructTransactionD1B7v160006Ev, symObjAddr: 0x7DC8, symBinAddr: 0x10000C4D4, symSize: 0x2C }
  - { offsetInCU: 0x1AE38, offset: 0x1AE38, size: 0x8, addend: 0x0, symName: __ZNSt3__16vectorI4FaceNS_9allocatorIS1_EEE21_ConstructTransactionC2B7v160006ERS4_m, symObjAddr: 0x7DF4, symBinAddr: 0x10000C500, symSize: 0x4C }
  - { offsetInCU: 0x1AE80, offset: 0x1AE80, size: 0x8, addend: 0x0, symName: __ZNSt3__19allocatorI4FaceE9constructB7v160006IS1_JRKS1_EEEvPT_DpOT0_, symObjAddr: 0x7E40, symBinAddr: 0x10000C54C, symSize: 0x34 }
  - { offsetInCU: 0x1AED6, offset: 0x1AED6, size: 0x8, addend: 0x0, symName: __ZNSt3__16vectorI4FaceNS_9allocatorIS1_EEE21_ConstructTransactionD2B7v160006Ev, symObjAddr: 0x7E74, symBinAddr: 0x10000C580, symSize: 0x20 }
  - { offsetInCU: 0x1AF00, offset: 0x1AF00, size: 0x8, addend: 0x0, symName: __ZNKSt3__16vectorI4FaceNS_9allocatorIS1_EEE11__recommendB7v160006Em, symObjAddr: 0x7E94, symBinAddr: 0x10000C5A0, symSize: 0xB4 }
  - { offsetInCU: 0x1AF55, offset: 0x1AF55, size: 0x8, addend: 0x0, symName: __ZNSt3__114__split_bufferI4FaceRNS_9allocatorIS1_EEEC1EmmS4_, symObjAddr: 0x7F48, symBinAddr: 0x10000C654, symSize: 0x44 }
  - { offsetInCU: 0x1AFAB, offset: 0x1AFAB, size: 0x8, addend: 0x0, symName: __ZNSt3__114__split_bufferI4FaceRNS_9allocatorIS1_EEED1Ev, symObjAddr: 0x80A4, symBinAddr: 0x10000C7B0, symSize: 0x2C }
  - { offsetInCU: 0x1AFD7, offset: 0x1AFD7, size: 0x8, addend: 0x0, symName: __ZNKSt3__16vectorI4FaceNS_9allocatorIS1_EEE8max_sizeEv, symObjAddr: 0x80D0, symBinAddr: 0x10000C7DC, symSize: 0x74 }
  - { offsetInCU: 0x1AFFF, offset: 0x1AFFF, size: 0x8, addend: 0x0, symName: __ZNKSt3__16vectorI4FaceNS_9allocatorIS1_EEE20__throw_length_errorB7v160006Ev, symObjAddr: 0x8144, symBinAddr: 0x10000C850, symSize: 0x1C }
  - { offsetInCU: 0x1B02F, offset: 0x1B02F, size: 0x8, addend: 0x0, symName: __ZNSt3__116allocator_traitsINS_9allocatorI4FaceEEE8max_sizeB7v160006IS3_vEEmRKS3_, symObjAddr: 0x8160, symBinAddr: 0x10000C86C, symSize: 0x24 }
  - { offsetInCU: 0x1B05D, offset: 0x1B05D, size: 0x8, addend: 0x0, symName: __ZNKSt3__16vectorI4FaceNS_9allocatorIS1_EEE7__allocB7v160006Ev, symObjAddr: 0x8184, symBinAddr: 0x10000C890, symSize: 0x28 }
  - { offsetInCU: 0x1B083, offset: 0x1B083, size: 0x8, addend: 0x0, symName: __ZNKSt3__19allocatorI4FaceE8max_sizeB7v160006Ev, symObjAddr: 0x81AC, symBinAddr: 0x10000C8B8, symSize: 0x20 }
  - { offsetInCU: 0x1B0A9, offset: 0x1B0A9, size: 0x8, addend: 0x0, symName: __ZNKSt3__117__compressed_pairIP4FaceNS_9allocatorIS1_EEE6secondB7v160006Ev, symObjAddr: 0x81CC, symBinAddr: 0x10000C8D8, symSize: 0x24 }
  - { offsetInCU: 0x1B0CF, offset: 0x1B0CF, size: 0x8, addend: 0x0, symName: __ZNKSt3__122__compressed_pair_elemINS_9allocatorI4FaceEELi1ELb1EE5__getB7v160006Ev, symObjAddr: 0x81F0, symBinAddr: 0x10000C8FC, symSize: 0x14 }
  - { offsetInCU: 0x1B0F5, offset: 0x1B0F5, size: 0x8, addend: 0x0, symName: __ZNSt3__114__split_bufferI4FaceRNS_9allocatorIS1_EEEC2EmmS4_, symObjAddr: 0x8204, symBinAddr: 0x10000C910, symSize: 0xE0 }
  - { offsetInCU: 0x1B169, offset: 0x1B169, size: 0x8, addend: 0x0, symName: __ZNSt3__117__compressed_pairIP4FaceRNS_9allocatorIS1_EEEC1B7v160006IDnS5_EEOT_OT0_, symObjAddr: 0x82E4, symBinAddr: 0x10000C9F0, symSize: 0x3C }
  - { offsetInCU: 0x1B1C1, offset: 0x1B1C1, size: 0x8, addend: 0x0, symName: __ZNSt3__114__split_bufferI4FaceRNS_9allocatorIS1_EEE7__allocB7v160006Ev, symObjAddr: 0x8360, symBinAddr: 0x10000CA6C, symSize: 0x28 }
  - { offsetInCU: 0x1B1E7, offset: 0x1B1E7, size: 0x8, addend: 0x0, symName: __ZNSt3__114__split_bufferI4FaceRNS_9allocatorIS1_EEE9__end_capB7v160006Ev, symObjAddr: 0x8388, symBinAddr: 0x10000CA94, symSize: 0x28 }
  - { offsetInCU: 0x1B20D, offset: 0x1B20D, size: 0x8, addend: 0x0, symName: __ZNSt3__117__compressed_pairIP4FaceRNS_9allocatorIS1_EEEC2B7v160006IDnS5_EEOT_OT0_, symObjAddr: 0x83B0, symBinAddr: 0x10000CABC, symSize: 0x48 }
  - { offsetInCU: 0x1B265, offset: 0x1B265, size: 0x8, addend: 0x0, symName: __ZNSt3__122__compressed_pair_elemIRNS_9allocatorI4FaceEELi1ELb0EEC2B7v160006IS4_vEEOT_, symObjAddr: 0x83F8, symBinAddr: 0x10000CB04, symSize: 0x20 }
  - { offsetInCU: 0x1B2A7, offset: 0x1B2A7, size: 0x8, addend: 0x0, symName: __ZNSt3__19allocatorI4FaceE8allocateB7v160006Em, symObjAddr: 0x8418, symBinAddr: 0x10000CB24, symSize: 0x8C }
  - { offsetInCU: 0x1B2DB, offset: 0x1B2DB, size: 0x8, addend: 0x0, symName: __ZNSt3__117__compressed_pairIP4FaceRNS_9allocatorIS1_EEE6secondB7v160006Ev, symObjAddr: 0x84A4, symBinAddr: 0x10000CBB0, symSize: 0x28 }
  - { offsetInCU: 0x1B301, offset: 0x1B301, size: 0x8, addend: 0x0, symName: __ZNSt3__122__compressed_pair_elemIRNS_9allocatorI4FaceEELi1ELb0EE5__getB7v160006Ev, symObjAddr: 0x84CC, symBinAddr: 0x10000CBD8, symSize: 0x18 }
  - { offsetInCU: 0x1B327, offset: 0x1B327, size: 0x8, addend: 0x0, symName: __ZNSt3__117__compressed_pairIP4FaceRNS_9allocatorIS1_EEE5firstB7v160006Ev, symObjAddr: 0x84E4, symBinAddr: 0x10000CBF0, symSize: 0x24 }
  - { offsetInCU: 0x1B34D, offset: 0x1B34D, size: 0x8, addend: 0x0, symName: __ZNSt3__116reverse_iteratorIP4FaceEC1B7v160006ES2_, symObjAddr: 0x85F0, symBinAddr: 0x10000CCFC, symSize: 0x34 }
  - { offsetInCU: 0x1B385, offset: 0x1B385, size: 0x8, addend: 0x0, symName: __ZNKSt3__116reverse_iteratorIP4FaceE4baseB7v160006Ev, symObjAddr: 0x8624, symBinAddr: 0x10000CD30, symSize: 0x18 }
  - { offsetInCU: 0x1B3AB, offset: 0x1B3AB, size: 0x8, addend: 0x0, symName: __ZNKSt3__16vectorI4FaceNS_9allocatorIS1_EEE14__annotate_newB7v160006Em, symObjAddr: 0x8678, symBinAddr: 0x10000CD84, symSize: 0xC8 }
  - { offsetInCU: 0x1B3E0, offset: 0x1B3E0, size: 0x8, addend: 0x0, symName: __ZNKSt3__116reverse_iteratorIP4FaceEdeB7v160006Ev, symObjAddr: 0x87FC, symBinAddr: 0x10000CF08, symSize: 0x28 }
  - { offsetInCU: 0x1B414, offset: 0x1B414, size: 0x8, addend: 0x0, symName: __ZNSt3__116reverse_iteratorIP4FaceEppB7v160006Ev, symObjAddr: 0x8824, symBinAddr: 0x10000CF30, symSize: 0x20 }
  - { offsetInCU: 0x1B43F, offset: 0x1B43F, size: 0x8, addend: 0x0, symName: __ZNSt3__119__to_address_helperINS_16reverse_iteratorIP4FaceEEvE6__callB7v160006ERKS4_, symObjAddr: 0x88BC, symBinAddr: 0x10000CFC8, symSize: 0x4C }
  - { offsetInCU: 0x1B462, offset: 0x1B462, size: 0x8, addend: 0x0, symName: __ZNKSt3__116reverse_iteratorIP4FaceEptB7v160006Ev, symObjAddr: 0x8908, symBinAddr: 0x10000D014, symSize: 0x24 }
  - { offsetInCU: 0x1B4AC, offset: 0x1B4AC, size: 0x8, addend: 0x0, symName: __ZNKSt3__111__move_loopINS_17_ClassicAlgPolicyEEclB7v160006INS_16reverse_iteratorIP4FaceEES7_S7_EENS_4pairIT_T1_EES9_T0_SA_, symObjAddr: 0x8BBC, symBinAddr: 0x10000D2C8, symSize: 0x9C }
  - { offsetInCU: 0x1B51D, offset: 0x1B51D, size: 0x8, addend: 0x0, symName: __ZNSt3__18_IterOpsINS_17_ClassicAlgPolicyEE11__iter_moveB7v160006IRNS_16reverse_iteratorIP4FaceEEEENS_9enable_ifIXsr12is_referenceIDTdeclsr3stdE7declvalIRT_EEEEE5valueEDTclsr3stdE4movedeclsr3stdE7declvalISB_EEEEE4typeEOSA_, symObjAddr: 0x8DB8, symBinAddr: 0x10000D4C4, symSize: 0x28 }
  - { offsetInCU: 0x1B549, offset: 0x1B549, size: 0x8, addend: 0x0, symName: __ZNSt3__18_IterOpsINS_17_ClassicAlgPolicyEE25__validate_iter_referenceB7v160006IRNS_16reverse_iteratorIP4FaceEEEEvv, symObjAddr: 0x8DE0, symBinAddr: 0x10000D4EC, symSize: 0x4 }
  - { offsetInCU: 0x1B567, offset: 0x1B567, size: 0x8, addend: 0x0, symName: __ZNSt3__118__unwrap_iter_implINS_16reverse_iteratorIP4FaceEELb0EE8__unwrapB7v160006ES4_, symObjAddr: 0x8DE4, symBinAddr: 0x10000D4F0, symSize: 0x24 }
  - { offsetInCU: 0x1B58A, offset: 0x1B58A, size: 0x8, addend: 0x0, symName: __ZNSt3__14pairINS_16reverse_iteratorIP4FaceEES4_EC1B7v160006ERKS4_S7_, symObjAddr: 0x8E08, symBinAddr: 0x10000D514, symSize: 0x3C }
  - { offsetInCU: 0x1B5D0, offset: 0x1B5D0, size: 0x8, addend: 0x0, symName: __ZNSt3__14pairINS_16reverse_iteratorIP4FaceEES4_EC2B7v160006ERKS4_S7_, symObjAddr: 0x8E44, symBinAddr: 0x10000D550, symSize: 0x34 }
  - { offsetInCU: 0x1B616, offset: 0x1B616, size: 0x8, addend: 0x0, symName: __ZNSt3__118__unwrap_iter_implINS_16reverse_iteratorIP4FaceEELb0EE8__rewrapB7v160006ES4_S4_, symObjAddr: 0x8E78, symBinAddr: 0x10000D584, symSize: 0x2C }
  - { offsetInCU: 0x1B644, offset: 0x1B644, size: 0x8, addend: 0x0, symName: __ZNSt3__116reverse_iteratorIP4FaceEC2B7v160006ES2_, symObjAddr: 0x8EA4, symBinAddr: 0x10000D5B0, symSize: 0x28 }
  - { offsetInCU: 0x1B67C, offset: 0x1B67C, size: 0x8, addend: 0x0, symName: __ZNSt3__114__split_bufferI4FaceRNS_9allocatorIS1_EEED2Ev, symObjAddr: 0x8ECC, symBinAddr: 0x10000D5D8, symSize: 0x80 }
  - { offsetInCU: 0x1B6A8, offset: 0x1B6A8, size: 0x8, addend: 0x0, symName: __ZNSt3__114__split_bufferI4FaceRNS_9allocatorIS1_EEE5clearB7v160006Ev, symObjAddr: 0x8F4C, symBinAddr: 0x10000D658, symSize: 0x28 }
  - { offsetInCU: 0x1B6CE, offset: 0x1B6CE, size: 0x8, addend: 0x0, symName: __ZNKSt3__114__split_bufferI4FaceRNS_9allocatorIS1_EEE8capacityB7v160006Ev, symObjAddr: 0x8F74, symBinAddr: 0x10000D680, symSize: 0x40 }
  - { offsetInCU: 0x1B6F4, offset: 0x1B6F4, size: 0x8, addend: 0x0, symName: __ZNSt3__114__split_bufferI4FaceRNS_9allocatorIS1_EEE17__destruct_at_endB7v160006EPS1_, symObjAddr: 0x8FB4, symBinAddr: 0x10000D6C0, symSize: 0x2C }
  - { offsetInCU: 0x1B728, offset: 0x1B728, size: 0x8, addend: 0x0, symName: __ZNSt3__114__split_bufferI4FaceRNS_9allocatorIS1_EEE17__destruct_at_endB7v160006EPS1_NS_17integral_constantIbLb0EEE, symObjAddr: 0x8FE0, symBinAddr: 0x10000D6EC, symSize: 0x94 }
  - { offsetInCU: 0x1B769, offset: 0x1B769, size: 0x8, addend: 0x0, symName: __ZNKSt3__114__split_bufferI4FaceRNS_9allocatorIS1_EEE9__end_capB7v160006Ev, symObjAddr: 0x9074, symBinAddr: 0x10000D780, symSize: 0x28 }
  - { offsetInCU: 0x1B78F, offset: 0x1B78F, size: 0x8, addend: 0x0, symName: __ZNKSt3__117__compressed_pairIP4FaceRNS_9allocatorIS1_EEE5firstB7v160006Ev, symObjAddr: 0x909C, symBinAddr: 0x10000D7A8, symSize: 0x24 }
  - { offsetInCU: 0x1B7B5, offset: 0x1B7B5, size: 0x8, addend: 0x0, symName: __ZNSt3__16vectorIjNS_9allocatorIjEEEC2B7v160006Ev, symObjAddr: 0x90C0, symBinAddr: 0x10000D7CC, symSize: 0x4C }
  - { offsetInCU: 0x1B7DF, offset: 0x1B7DF, size: 0x8, addend: 0x0, symName: __ZNSt3__117__compressed_pairIPjNS_9allocatorIjEEEC1B7v160006IDnNS_18__default_init_tagEEEOT_OT0_, symObjAddr: 0x910C, symBinAddr: 0x10000D818, symSize: 0x3C }
  - { offsetInCU: 0x1B837, offset: 0x1B837, size: 0x8, addend: 0x0, symName: __ZNSt3__117__compressed_pairIPjNS_9allocatorIjEEEC2B7v160006IDnNS_18__default_init_tagEEEOT_OT0_, symObjAddr: 0x9158, symBinAddr: 0x10000D864, symSize: 0x40 }
  - { offsetInCU: 0x1B88F, offset: 0x1B88F, size: 0x8, addend: 0x0, symName: __ZNSt3__122__compressed_pair_elemIPjLi0ELb0EEC2B7v160006IDnvEEOT_, symObjAddr: 0x9198, symBinAddr: 0x10000D8A4, symSize: 0x1C }
  - { offsetInCU: 0x1B8D1, offset: 0x1B8D1, size: 0x8, addend: 0x0, symName: __ZNSt3__122__compressed_pair_elemINS_9allocatorIjEELi1ELb1EEC2B7v160006ENS_18__default_init_tagE, symObjAddr: 0x91B4, symBinAddr: 0x10000D8C0, symSize: 0x2C }
  - { offsetInCU: 0x1B906, offset: 0x1B906, size: 0x8, addend: 0x0, symName: __ZNSt3__19allocatorIjEC2B7v160006Ev, symObjAddr: 0x91E0, symBinAddr: 0x10000D8EC, symSize: 0x2C }
  - { offsetInCU: 0x1B930, offset: 0x1B930, size: 0x8, addend: 0x0, symName: __ZNSt3__116__non_trivial_ifILb1ENS_9allocatorIjEEEC2B7v160006Ev, symObjAddr: 0x920C, symBinAddr: 0x10000D918, symSize: 0x14 }
  - { offsetInCU: 0x1B95A, offset: 0x1B95A, size: 0x8, addend: 0x0, symName: __ZNSt3__16vectorIjNS_9allocatorIjEEED2B7v160006Ev, symObjAddr: 0x9220, symBinAddr: 0x10000D92C, symSize: 0x3C }
  - { offsetInCU: 0x1B984, offset: 0x1B984, size: 0x8, addend: 0x0, symName: __ZNSt3__16vectorIjNS_9allocatorIjEEE16__destroy_vectorC1ERS3_, symObjAddr: 0x925C, symBinAddr: 0x10000D968, symSize: 0x34 }
  - { offsetInCU: 0x1B9BD, offset: 0x1B9BD, size: 0x8, addend: 0x0, symName: __ZNSt3__16vectorIjNS_9allocatorIjEEE16__destroy_vectorclB7v160006Ev, symObjAddr: 0x9290, symBinAddr: 0x10000D99C, symSize: 0x9C }
  - { offsetInCU: 0x1B9E3, offset: 0x1B9E3, size: 0x8, addend: 0x0, symName: __ZNSt3__16vectorIjNS_9allocatorIjEEE16__destroy_vectorC2ERS3_, symObjAddr: 0x932C, symBinAddr: 0x10000DA38, symSize: 0x20 }
  - { offsetInCU: 0x1BA1C, offset: 0x1BA1C, size: 0x8, addend: 0x0, symName: __ZNKSt3__16vectorIjNS_9allocatorIjEEE17__annotate_deleteB7v160006Ev, symObjAddr: 0x934C, symBinAddr: 0x10000DA58, symSize: 0xB8 }
  - { offsetInCU: 0x1BA42, offset: 0x1BA42, size: 0x8, addend: 0x0, symName: __ZNSt3__16vectorIjNS_9allocatorIjEEE7__clearB7v160006Ev, symObjAddr: 0x9414, symBinAddr: 0x10000DB20, symSize: 0x28 }
  - { offsetInCU: 0x1BA68, offset: 0x1BA68, size: 0x8, addend: 0x0, symName: __ZNSt3__116allocator_traitsINS_9allocatorIjEEE10deallocateB7v160006ERS2_Pjm, symObjAddr: 0x943C, symBinAddr: 0x10000DB48, symSize: 0x34 }
  - { offsetInCU: 0x1BAAA, offset: 0x1BAAA, size: 0x8, addend: 0x0, symName: __ZNSt3__16vectorIjNS_9allocatorIjEEE7__allocB7v160006Ev, symObjAddr: 0x9470, symBinAddr: 0x10000DB7C, symSize: 0x28 }
  - { offsetInCU: 0x1BAD0, offset: 0x1BAD0, size: 0x8, addend: 0x0, symName: __ZNKSt3__16vectorIjNS_9allocatorIjEEE8capacityB7v160006Ev, symObjAddr: 0x9498, symBinAddr: 0x10000DBA4, symSize: 0x40 }
  - { offsetInCU: 0x1BAF6, offset: 0x1BAF6, size: 0x8, addend: 0x0, symName: __ZNKSt3__16vectorIjNS_9allocatorIjEEE31__annotate_contiguous_containerB7v160006EPKvS5_S5_S5_, symObjAddr: 0x94D8, symBinAddr: 0x10000DBE4, symSize: 0x20 }
  - { offsetInCU: 0x1BB48, offset: 0x1BB48, size: 0x8, addend: 0x0, symName: __ZNKSt3__16vectorIjNS_9allocatorIjEEE4dataB7v160006Ev, symObjAddr: 0x94F8, symBinAddr: 0x10000DC04, symSize: 0x28 }
  - { offsetInCU: 0x1BB6E, offset: 0x1BB6E, size: 0x8, addend: 0x0, symName: __ZNSt3__16vectorIjNS_9allocatorIjEEE22__base_destruct_at_endB7v160006EPj, symObjAddr: 0x9534, symBinAddr: 0x10000DC40, symSize: 0xA0 }
  - { offsetInCU: 0x1BBB2, offset: 0x1BBB2, size: 0x8, addend: 0x0, symName: __ZNSt3__116allocator_traitsINS_9allocatorIjEEE7destroyB7v160006IjvEEvRS2_PT_, symObjAddr: 0x95D4, symBinAddr: 0x10000DCE0, symSize: 0x2C }
  - { offsetInCU: 0x1BBEF, offset: 0x1BBEF, size: 0x8, addend: 0x0, symName: __ZNSt3__19allocatorIjE7destroyB7v160006EPj, symObjAddr: 0x9600, symBinAddr: 0x10000DD0C, symSize: 0x14 }
  - { offsetInCU: 0x1BC23, offset: 0x1BC23, size: 0x8, addend: 0x0, symName: __ZNSt3__19allocatorIjE10deallocateB7v160006EPjm, symObjAddr: 0x9614, symBinAddr: 0x10000DD20, symSize: 0x70 }
  - { offsetInCU: 0x1BC65, offset: 0x1BC65, size: 0x8, addend: 0x0, symName: __ZNSt3__117__compressed_pairIPjNS_9allocatorIjEEE6secondB7v160006Ev, symObjAddr: 0x9684, symBinAddr: 0x10000DD90, symSize: 0x24 }
  - { offsetInCU: 0x1BC8B, offset: 0x1BC8B, size: 0x8, addend: 0x0, symName: __ZNSt3__122__compressed_pair_elemINS_9allocatorIjEELi1ELb1EE5__getB7v160006Ev, symObjAddr: 0x96A8, symBinAddr: 0x10000DDB4, symSize: 0x14 }
  - { offsetInCU: 0x1BCB1, offset: 0x1BCB1, size: 0x8, addend: 0x0, symName: __ZNKSt3__16vectorIjNS_9allocatorIjEEE9__end_capB7v160006Ev, symObjAddr: 0x96BC, symBinAddr: 0x10000DDC8, symSize: 0x28 }
  - { offsetInCU: 0x1BCD7, offset: 0x1BCD7, size: 0x8, addend: 0x0, symName: __ZNKSt3__117__compressed_pairIPjNS_9allocatorIjEEE5firstB7v160006Ev, symObjAddr: 0x96E4, symBinAddr: 0x10000DDF0, symSize: 0x24 }
  - { offsetInCU: 0x1BCFD, offset: 0x1BCFD, size: 0x8, addend: 0x0, symName: __ZNKSt3__122__compressed_pair_elemIPjLi0ELb0EE5__getB7v160006Ev, symObjAddr: 0x9708, symBinAddr: 0x10000DE14, symSize: 0x14 }
  - { offsetInCU: 0x1BD23, offset: 0x1BD23, size: 0x8, addend: 0x0, symName: __ZNSt3__113unordered_mapINS_12basic_stringIcNS_11char_traitsIcEENS_9allocatorIcEEEEiNS_4hashIS6_EENS_8equal_toIS6_EENS4_INS_4pairIKS6_iEEEEEC2B7v160006Ev, symObjAddr: 0x971C, symBinAddr: 0x10000DE28, symSize: 0x64 }
  - { offsetInCU: 0x1BD4D, offset: 0x1BD4D, size: 0x8, addend: 0x0, symName: __ZNSt3__112__hash_tableINS_17__hash_value_typeINS_12basic_stringIcNS_11char_traitsIcEENS_9allocatorIcEEEEiEENS_22__unordered_map_hasherIS7_S8_NS_4hashIS7_EENS_8equal_toIS7_EELb1EEENS_21__unordered_map_equalIS7_S8_SD_SB_Lb1EEENS5_IS8_EEEC1Ev, symObjAddr: 0x9780, symBinAddr: 0x10000DE8C, symSize: 0x2C }
  - { offsetInCU: 0x1BD79, offset: 0x1BD79, size: 0x8, addend: 0x0, symName: __ZNSt3__112__hash_tableINS_17__hash_value_typeINS_12basic_stringIcNS_11char_traitsIcEENS_9allocatorIcEEEEiEENS_22__unordered_map_hasherIS7_S8_NS_4hashIS7_EENS_8equal_toIS7_EELb1EEENS_21__unordered_map_equalIS7_S8_SD_SB_Lb1EEENS5_IS8_EEED1Ev, symObjAddr: 0x97BC, symBinAddr: 0x10000DEC8, symSize: 0x2C }
  - { offsetInCU: 0x1BDA5, offset: 0x1BDA5, size: 0x8, addend: 0x0, symName: __ZNSt3__112__hash_tableINS_17__hash_value_typeINS_12basic_stringIcNS_11char_traitsIcEENS_9allocatorIcEEEEiEENS_22__unordered_map_hasherIS7_S8_NS_4hashIS7_EENS_8equal_toIS7_EELb1EEENS_21__unordered_map_equalIS7_S8_SD_SB_Lb1EEENS5_IS8_EEEC2Ev, symObjAddr: 0x97E8, symBinAddr: 0x10000DEF4, symSize: 0xA4 }
  - { offsetInCU: 0x1BDD1, offset: 0x1BDD1, size: 0x8, addend: 0x0, symName: __ZNSt3__110unique_ptrIA_PNS_16__hash_node_baseIPNS_11__hash_nodeINS_17__hash_value_typeINS_12basic_stringIcNS_11char_traitsIcEENS_9allocatorIcEEEEiEEPvEEEENS_25__bucket_list_deallocatorINS7_ISF_EEEEEC1B7v160006ILb1EvEEv, symObjAddr: 0x988C, symBinAddr: 0x10000DF98, symSize: 0x2C }
  - { offsetInCU: 0x1BE06, offset: 0x1BE06, size: 0x8, addend: 0x0, symName: __ZNSt3__117__compressed_pairINS_16__hash_node_baseIPNS_11__hash_nodeINS_17__hash_value_typeINS_12basic_stringIcNS_11char_traitsIcEENS_9allocatorIcEEEEiEEPvEEEENS7_ISC_EEEC1B7v160006ILb1EvEEv, symObjAddr: 0x98B8, symBinAddr: 0x10000DFC4, symSize: 0x2C }
  - { offsetInCU: 0x1BE41, offset: 0x1BE41, size: 0x8, addend: 0x0, symName: __ZNSt3__117__compressed_pairImNS_22__unordered_map_hasherINS_12basic_stringIcNS_11char_traitsIcEENS_9allocatorIcEEEENS_17__hash_value_typeIS7_iEENS_4hashIS7_EENS_8equal_toIS7_EELb1EEEEC1B7v160006IiNS_18__default_init_tagEEEOT_OT0_, symObjAddr: 0x98E4, symBinAddr: 0x10000DFF0, symSize: 0x3C }
  - { offsetInCU: 0x1BE9F, offset: 0x1BE9F, size: 0x8, addend: 0x0, symName: __ZNSt3__117__compressed_pairIfNS_21__unordered_map_equalINS_12basic_stringIcNS_11char_traitsIcEENS_9allocatorIcEEEENS_17__hash_value_typeIS7_iEENS_8equal_toIS7_EENS_4hashIS7_EELb1EEEEC1B7v160006IfNS_18__default_init_tagEEEOT_OT0_, symObjAddr: 0x9920, symBinAddr: 0x10000E02C, symSize: 0x3C }
  - { offsetInCU: 0x1BEF7, offset: 0x1BEF7, size: 0x8, addend: 0x0, symName: __ZNSt3__110unique_ptrIA_PNS_16__hash_node_baseIPNS_11__hash_nodeINS_17__hash_value_typeINS_12basic_stringIcNS_11char_traitsIcEENS_9allocatorIcEEEEiEEPvEEEENS_25__bucket_list_deallocatorINS7_ISF_EEEEED1B7v160006Ev, symObjAddr: 0x995C, symBinAddr: 0x10000E068, symSize: 0x2C }
  - { offsetInCU: 0x1BF21, offset: 0x1BF21, size: 0x8, addend: 0x0, symName: __ZNSt3__110unique_ptrIA_PNS_16__hash_node_baseIPNS_11__hash_nodeINS_17__hash_value_typeINS_12basic_stringIcNS_11char_traitsIcEENS_9allocatorIcEEEEiEEPvEEEENS_25__bucket_list_deallocatorINS7_ISF_EEEEEC2B7v160006ILb1EvEEv, symObjAddr: 0x9988, symBinAddr: 0x10000E094, symSize: 0x50 }
  - { offsetInCU: 0x1BF5C, offset: 0x1BF5C, size: 0x8, addend: 0x0, symName: __ZNSt3__117__compressed_pairIPPNS_16__hash_node_baseIPNS_11__hash_nodeINS_17__hash_value_typeINS_12basic_stringIcNS_11char_traitsIcEENS_9allocatorIcEEEEiEEPvEEEENS_25__bucket_list_deallocatorINS7_ISF_EEEEEC1B7v160006INS_16__value_init_tagESM_EEOT_OT0_, symObjAddr: 0x99D8, symBinAddr: 0x10000E0E4, symSize: 0x3C }
  - { offsetInCU: 0x1BFB4, offset: 0x1BFB4, size: 0x8, addend: 0x0, symName: __ZNSt3__117__compressed_pairIPPNS_16__hash_node_baseIPNS_11__hash_nodeINS_17__hash_value_typeINS_12basic_stringIcNS_11char_traitsIcEENS_9allocatorIcEEEEiEEPvEEEENS_25__bucket_list_deallocatorINS7_ISF_EEEEEC2B7v160006INS_16__value_init_tagESM_EEOT_OT0_, symObjAddr: 0x9A14, symBinAddr: 0x10000E120, symSize: 0x40 }
  - { offsetInCU: 0x1C00C, offset: 0x1C00C, size: 0x8, addend: 0x0, symName: __ZNSt3__122__compressed_pair_elemIPPNS_16__hash_node_baseIPNS_11__hash_nodeINS_17__hash_value_typeINS_12basic_stringIcNS_11char_traitsIcEENS_9allocatorIcEEEEiEEPvEEEELi0ELb0EEC2B7v160006ENS_16__value_init_tagE, symObjAddr: 0x9A54, symBinAddr: 0x10000E160, symSize: 0x18 }
  - { offsetInCU: 0x1C041, offset: 0x1C041, size: 0x8, addend: 0x0, symName: __ZNSt3__122__compressed_pair_elemINS_25__bucket_list_deallocatorINS_9allocatorIPNS_16__hash_node_baseIPNS_11__hash_nodeINS_17__hash_value_typeINS_12basic_stringIcNS_11char_traitsIcEENS2_IcEEEEiEEPvEEEEEEEELi1ELb0EEC2B7v160006ENS_16__value_init_tagE, symObjAddr: 0x9A6C, symBinAddr: 0x10000E178, symSize: 0x2C }
  - { offsetInCU: 0x1C076, offset: 0x1C076, size: 0x8, addend: 0x0, symName: __ZNSt3__125__bucket_list_deallocatorINS_9allocatorIPNS_16__hash_node_baseIPNS_11__hash_nodeINS_17__hash_value_typeINS_12basic_stringIcNS_11char_traitsIcEENS1_IcEEEEiEEPvEEEEEEEC1B7v160006Ev, symObjAddr: 0x9A98, symBinAddr: 0x10000E1A4, symSize: 0x2C }
  - { offsetInCU: 0x1C0A0, offset: 0x1C0A0, size: 0x8, addend: 0x0, symName: __ZNSt3__125__bucket_list_deallocatorINS_9allocatorIPNS_16__hash_node_baseIPNS_11__hash_nodeINS_17__hash_value_typeINS_12basic_stringIcNS_11char_traitsIcEENS1_IcEEEEiEEPvEEEEEEEC2B7v160006Ev, symObjAddr: 0x9AC4, symBinAddr: 0x10000E1D0, symSize: 0x38 }
  - { offsetInCU: 0x1C0CA, offset: 0x1C0CA, size: 0x8, addend: 0x0, symName: __ZNSt3__117__compressed_pairImNS_9allocatorIPNS_16__hash_node_baseIPNS_11__hash_nodeINS_17__hash_value_typeINS_12basic_stringIcNS_11char_traitsIcEENS1_IcEEEEiEEPvEEEEEEEC1B7v160006IiNS_18__default_init_tagEEEOT_OT0_, symObjAddr: 0x9AFC, symBinAddr: 0x10000E208, symSize: 0x3C }
  - { offsetInCU: 0x1C122, offset: 0x1C122, size: 0x8, addend: 0x0, symName: __ZNSt3__117__compressed_pairImNS_9allocatorIPNS_16__hash_node_baseIPNS_11__hash_nodeINS_17__hash_value_typeINS_12basic_stringIcNS_11char_traitsIcEENS1_IcEEEEiEEPvEEEEEEEC2B7v160006IiNS_18__default_init_tagEEEOT_OT0_, symObjAddr: 0x9B38, symBinAddr: 0x10000E244, symSize: 0x40 }
  - { offsetInCU: 0x1C17A, offset: 0x1C17A, size: 0x8, addend: 0x0, symName: __ZNSt3__122__compressed_pair_elemImLi0ELb0EEC2B7v160006IivEEOT_, symObjAddr: 0x9B78, symBinAddr: 0x10000E284, symSize: 0x24 }
  - { offsetInCU: 0x1C1BC, offset: 0x1C1BC, size: 0x8, addend: 0x0, symName: __ZNSt3__122__compressed_pair_elemINS_9allocatorIPNS_16__hash_node_baseIPNS_11__hash_nodeINS_17__hash_value_typeINS_12basic_stringIcNS_11char_traitsIcEENS1_IcEEEEiEEPvEEEEEELi1ELb1EEC2B7v160006ENS_18__default_init_tagE, symObjAddr: 0x9B9C, symBinAddr: 0x10000E2A8, symSize: 0x2C }
  - { offsetInCU: 0x1C1F1, offset: 0x1C1F1, size: 0x8, addend: 0x0, symName: __ZNSt3__19allocatorIPNS_16__hash_node_baseIPNS_11__hash_nodeINS_17__hash_value_typeINS_12basic_stringIcNS_11char_traitsIcEENS0_IcEEEEiEEPvEEEEEC2B7v160006Ev, symObjAddr: 0x9BC8, symBinAddr: 0x10000E2D4, symSize: 0x2C }
  - { offsetInCU: 0x1C21B, offset: 0x1C21B, size: 0x8, addend: 0x0, symName: __ZNSt3__116__non_trivial_ifILb1ENS_9allocatorIPNS_16__hash_node_baseIPNS_11__hash_nodeINS_17__hash_value_typeINS_12basic_stringIcNS_11char_traitsIcEENS1_IcEEEEiEEPvEEEEEEEC2B7v160006Ev, symObjAddr: 0x9BF4, symBinAddr: 0x10000E300, symSize: 0x14 }
  - { offsetInCU: 0x1C245, offset: 0x1C245, size: 0x8, addend: 0x0, symName: __ZNSt3__117__compressed_pairINS_16__hash_node_baseIPNS_11__hash_nodeINS_17__hash_value_typeINS_12basic_stringIcNS_11char_traitsIcEENS_9allocatorIcEEEEiEEPvEEEENS7_ISC_EEEC2B7v160006ILb1EvEEv, symObjAddr: 0x9C08, symBinAddr: 0x10000E314, symSize: 0x34 }
  - { offsetInCU: 0x1C27A, offset: 0x1C27A, size: 0x8, addend: 0x0, symName: __ZNSt3__122__compressed_pair_elemINS_16__hash_node_baseIPNS_11__hash_nodeINS_17__hash_value_typeINS_12basic_stringIcNS_11char_traitsIcEENS_9allocatorIcEEEEiEEPvEEEELi0ELb0EEC2B7v160006ENS_16__value_init_tagE, symObjAddr: 0x9C3C, symBinAddr: 0x10000E348, symSize: 0x2C }
  - { offsetInCU: 0x1C2AF, offset: 0x1C2AF, size: 0x8, addend: 0x0, symName: __ZNSt3__122__compressed_pair_elemINS_9allocatorINS_11__hash_nodeINS_17__hash_value_typeINS_12basic_stringIcNS_11char_traitsIcEENS1_IcEEEEiEEPvEEEELi1ELb1EEC2B7v160006ENS_16__value_init_tagE, symObjAddr: 0x9C68, symBinAddr: 0x10000E374, symSize: 0x2C }
  - { offsetInCU: 0x1C2E4, offset: 0x1C2E4, size: 0x8, addend: 0x0, symName: __ZNSt3__116__hash_node_baseIPNS_11__hash_nodeINS_17__hash_value_typeINS_12basic_stringIcNS_11char_traitsIcEENS_9allocatorIcEEEEiEEPvEEEC1B7v160006Ev, symObjAddr: 0x9C94, symBinAddr: 0x10000E3A0, symSize: 0x2C }
  - { offsetInCU: 0x1C30E, offset: 0x1C30E, size: 0x8, addend: 0x0, symName: __ZNSt3__116__hash_node_baseIPNS_11__hash_nodeINS_17__hash_value_typeINS_12basic_stringIcNS_11char_traitsIcEENS_9allocatorIcEEEEiEEPvEEEC2B7v160006Ev, symObjAddr: 0x9CC0, symBinAddr: 0x10000E3CC, symSize: 0x18 }
  - { offsetInCU: 0x1C338, offset: 0x1C338, size: 0x8, addend: 0x0, symName: __ZNSt3__19allocatorINS_11__hash_nodeINS_17__hash_value_typeINS_12basic_stringIcNS_11char_traitsIcEENS0_IcEEEEiEEPvEEEC2B7v160006Ev, symObjAddr: 0x9CD8, symBinAddr: 0x10000E3E4, symSize: 0x2C }
  - { offsetInCU: 0x1C362, offset: 0x1C362, size: 0x8, addend: 0x0, symName: __ZNSt3__116__non_trivial_ifILb1ENS_9allocatorINS_11__hash_nodeINS_17__hash_value_typeINS_12basic_stringIcNS_11char_traitsIcEENS1_IcEEEEiEEPvEEEEEC2B7v160006Ev, symObjAddr: 0x9D04, symBinAddr: 0x10000E410, symSize: 0x14 }
  - { offsetInCU: 0x1C38C, offset: 0x1C38C, size: 0x8, addend: 0x0, symName: __ZNSt3__117__compressed_pairImNS_22__unordered_map_hasherINS_12basic_stringIcNS_11char_traitsIcEENS_9allocatorIcEEEENS_17__hash_value_typeIS7_iEENS_4hashIS7_EENS_8equal_toIS7_EELb1EEEEC2B7v160006IiNS_18__default_init_tagEEEOT_OT0_, symObjAddr: 0x9D18, symBinAddr: 0x10000E424, symSize: 0x40 }
  - { offsetInCU: 0x1C3E4, offset: 0x1C3E4, size: 0x8, addend: 0x0, symName: __ZNSt3__122__compressed_pair_elemINS_22__unordered_map_hasherINS_12basic_stringIcNS_11char_traitsIcEENS_9allocatorIcEEEENS_17__hash_value_typeIS7_iEENS_4hashIS7_EENS_8equal_toIS7_EELb1EEELi1ELb1EEC2B7v160006ENS_18__default_init_tagE, symObjAddr: 0x9D58, symBinAddr: 0x10000E464, symSize: 0x2C }
  - { offsetInCU: 0x1C419, offset: 0x1C419, size: 0x8, addend: 0x0, symName: __ZNSt3__122__unordered_map_hasherINS_12basic_stringIcNS_11char_traitsIcEENS_9allocatorIcEEEENS_17__hash_value_typeIS6_iEENS_4hashIS6_EENS_8equal_toIS6_EELb1EEC2B7v160006Ev, symObjAddr: 0x9D84, symBinAddr: 0x10000E490, symSize: 0x14 }
  - { offsetInCU: 0x1C443, offset: 0x1C443, size: 0x8, addend: 0x0, symName: __ZNSt3__117__compressed_pairIfNS_21__unordered_map_equalINS_12basic_stringIcNS_11char_traitsIcEENS_9allocatorIcEEEENS_17__hash_value_typeIS7_iEENS_8equal_toIS7_EENS_4hashIS7_EELb1EEEEC2B7v160006IfNS_18__default_init_tagEEEOT_OT0_, symObjAddr: 0x9D98, symBinAddr: 0x10000E4A4, symSize: 0x40 }
  - { offsetInCU: 0x1C49B, offset: 0x1C49B, size: 0x8, addend: 0x0, symName: __ZNSt3__122__compressed_pair_elemIfLi0ELb0EEC2B7v160006IfvEEOT_, symObjAddr: 0x9DD8, symBinAddr: 0x10000E4E4, symSize: 0x24 }
  - { offsetInCU: 0x1C4DD, offset: 0x1C4DD, size: 0x8, addend: 0x0, symName: __ZNSt3__122__compressed_pair_elemINS_21__unordered_map_equalINS_12basic_stringIcNS_11char_traitsIcEENS_9allocatorIcEEEENS_17__hash_value_typeIS7_iEENS_8equal_toIS7_EENS_4hashIS7_EELb1EEELi1ELb1EEC2B7v160006ENS_18__default_init_tagE, symObjAddr: 0x9DFC, symBinAddr: 0x10000E508, symSize: 0x2C }
  - { offsetInCU: 0x1C512, offset: 0x1C512, size: 0x8, addend: 0x0, symName: __ZNSt3__121__unordered_map_equalINS_12basic_stringIcNS_11char_traitsIcEENS_9allocatorIcEEEENS_17__hash_value_typeIS6_iEENS_8equal_toIS6_EENS_4hashIS6_EELb1EEC2B7v160006Ev, symObjAddr: 0x9E28, symBinAddr: 0x10000E534, symSize: 0x14 }
  - { offsetInCU: 0x1C53C, offset: 0x1C53C, size: 0x8, addend: 0x0, symName: __ZNSt3__110unique_ptrIA_PNS_16__hash_node_baseIPNS_11__hash_nodeINS_17__hash_value_typeINS_12basic_stringIcNS_11char_traitsIcEENS_9allocatorIcEEEEiEEPvEEEENS_25__bucket_list_deallocatorINS7_ISF_EEEEED2B7v160006Ev, symObjAddr: 0x9E3C, symBinAddr: 0x10000E548, symSize: 0x30 }
  - { offsetInCU: 0x1C566, offset: 0x1C566, size: 0x8, addend: 0x0, symName: __ZNSt3__110unique_ptrIA_PNS_16__hash_node_baseIPNS_11__hash_nodeINS_17__hash_value_typeINS_12basic_stringIcNS_11char_traitsIcEENS_9allocatorIcEEEEiEEPvEEEENS_25__bucket_list_deallocatorINS7_ISF_EEEEE5resetB7v160006EDn, symObjAddr: 0x9E6C, symBinAddr: 0x10000E578, symSize: 0x6C }
  - { offsetInCU: 0x1C5A6, offset: 0x1C5A6, size: 0x8, addend: 0x0, symName: __ZNSt3__117__compressed_pairIPPNS_16__hash_node_baseIPNS_11__hash_nodeINS_17__hash_value_typeINS_12basic_stringIcNS_11char_traitsIcEENS_9allocatorIcEEEEiEEPvEEEENS_25__bucket_list_deallocatorINS7_ISF_EEEEE5firstB7v160006Ev, symObjAddr: 0x9ED8, symBinAddr: 0x10000E5E4, symSize: 0x24 }
  - { offsetInCU: 0x1C5CC, offset: 0x1C5CC, size: 0x8, addend: 0x0, symName: __ZNSt3__117__compressed_pairIPPNS_16__hash_node_baseIPNS_11__hash_nodeINS_17__hash_value_typeINS_12basic_stringIcNS_11char_traitsIcEENS_9allocatorIcEEEEiEEPvEEEENS_25__bucket_list_deallocatorINS7_ISF_EEEEE6secondB7v160006Ev, symObjAddr: 0x9EFC, symBinAddr: 0x10000E608, symSize: 0x28 }
  - { offsetInCU: 0x1C5F2, offset: 0x1C5F2, size: 0x8, addend: 0x0, symName: __ZNSt3__125__bucket_list_deallocatorINS_9allocatorIPNS_16__hash_node_baseIPNS_11__hash_nodeINS_17__hash_value_typeINS_12basic_stringIcNS_11char_traitsIcEENS1_IcEEEEiEEPvEEEEEEEclB7v160006EPSF_, symObjAddr: 0x9F24, symBinAddr: 0x10000E630, symSize: 0x58 }
  - { offsetInCU: 0x1C627, offset: 0x1C627, size: 0x8, addend: 0x0, symName: __ZNSt3__122__compressed_pair_elemIPPNS_16__hash_node_baseIPNS_11__hash_nodeINS_17__hash_value_typeINS_12basic_stringIcNS_11char_traitsIcEENS_9allocatorIcEEEEiEEPvEEEELi0ELb0EE5__getB7v160006Ev, symObjAddr: 0x9F7C, symBinAddr: 0x10000E688, symSize: 0x14 }
  - { offsetInCU: 0x1C64D, offset: 0x1C64D, size: 0x8, addend: 0x0, symName: __ZNSt3__122__compressed_pair_elemINS_25__bucket_list_deallocatorINS_9allocatorIPNS_16__hash_node_baseIPNS_11__hash_nodeINS_17__hash_value_typeINS_12basic_stringIcNS_11char_traitsIcEENS2_IcEEEEiEEPvEEEEEEEELi1ELb0EE5__getB7v160006Ev, symObjAddr: 0x9F90, symBinAddr: 0x10000E69C, symSize: 0x14 }
  - { offsetInCU: 0x1C673, offset: 0x1C673, size: 0x8, addend: 0x0, symName: __ZNSt3__116allocator_traitsINS_9allocatorIPNS_16__hash_node_baseIPNS_11__hash_nodeINS_17__hash_value_typeINS_12basic_stringIcNS_11char_traitsIcEENS1_IcEEEEiEEPvEEEEEEE10deallocateB7v160006ERSG_PSF_m, symObjAddr: 0x9FA4, symBinAddr: 0x10000E6B0, symSize: 0x34 }
  - { offsetInCU: 0x1C6B5, offset: 0x1C6B5, size: 0x8, addend: 0x0, symName: __ZNSt3__125__bucket_list_deallocatorINS_9allocatorIPNS_16__hash_node_baseIPNS_11__hash_nodeINS_17__hash_value_typeINS_12basic_stringIcNS_11char_traitsIcEENS1_IcEEEEiEEPvEEEEEEE7__allocB7v160006Ev, symObjAddr: 0x9FD8, symBinAddr: 0x10000E6E4, symSize: 0x24 }
  - { offsetInCU: 0x1C6DB, offset: 0x1C6DB, size: 0x8, addend: 0x0, symName: __ZNSt3__125__bucket_list_deallocatorINS_9allocatorIPNS_16__hash_node_baseIPNS_11__hash_nodeINS_17__hash_value_typeINS_12basic_stringIcNS_11char_traitsIcEENS1_IcEEEEiEEPvEEEEEEE4sizeB7v160006Ev, symObjAddr: 0x9FFC, symBinAddr: 0x10000E708, symSize: 0x24 }
  - { offsetInCU: 0x1C701, offset: 0x1C701, size: 0x8, addend: 0x0, symName: __ZNSt3__19allocatorIPNS_16__hash_node_baseIPNS_11__hash_nodeINS_17__hash_value_typeINS_12basic_stringIcNS_11char_traitsIcEENS0_IcEEEEiEEPvEEEEE10deallocateB7v160006EPSE_m, symObjAddr: 0xA020, symBinAddr: 0x10000E72C, symSize: 0x70 }
  - { offsetInCU: 0x1C743, offset: 0x1C743, size: 0x8, addend: 0x0, symName: __ZNSt3__117__compressed_pairImNS_9allocatorIPNS_16__hash_node_baseIPNS_11__hash_nodeINS_17__hash_value_typeINS_12basic_stringIcNS_11char_traitsIcEENS1_IcEEEEiEEPvEEEEEEE6secondB7v160006Ev, symObjAddr: 0xA090, symBinAddr: 0x10000E79C, symSize: 0x24 }
  - { offsetInCU: 0x1C769, offset: 0x1C769, size: 0x8, addend: 0x0, symName: __ZNSt3__122__compressed_pair_elemINS_9allocatorIPNS_16__hash_node_baseIPNS_11__hash_nodeINS_17__hash_value_typeINS_12basic_stringIcNS_11char_traitsIcEENS1_IcEEEEiEEPvEEEEEELi1ELb1EE5__getB7v160006Ev, symObjAddr: 0xA0B4, symBinAddr: 0x10000E7C0, symSize: 0x14 }
  - { offsetInCU: 0x1C78F, offset: 0x1C78F, size: 0x8, addend: 0x0, symName: __ZNSt3__117__compressed_pairImNS_9allocatorIPNS_16__hash_node_baseIPNS_11__hash_nodeINS_17__hash_value_typeINS_12basic_stringIcNS_11char_traitsIcEENS1_IcEEEEiEEPvEEEEEEE5firstB7v160006Ev, symObjAddr: 0xA0C8, symBinAddr: 0x10000E7D4, symSize: 0x24 }
  - { offsetInCU: 0x1C7B5, offset: 0x1C7B5, size: 0x8, addend: 0x0, symName: __ZNSt3__122__compressed_pair_elemImLi0ELb0EE5__getB7v160006Ev, symObjAddr: 0xA0EC, symBinAddr: 0x10000E7F8, symSize: 0x14 }
  - { offsetInCU: 0x1C7DB, offset: 0x1C7DB, size: 0x8, addend: 0x0, symName: __ZNSt3__112__hash_tableINS_17__hash_value_typeINS_12basic_stringIcNS_11char_traitsIcEENS_9allocatorIcEEEEiEENS_22__unordered_map_hasherIS7_S8_NS_4hashIS7_EENS_8equal_toIS7_EELb1EEENS_21__unordered_map_equalIS7_S8_SD_SB_Lb1EEENS5_IS8_EEED2Ev, symObjAddr: 0xA100, symBinAddr: 0x10000E80C, symSize: 0x80 }
  - { offsetInCU: 0x1C807, offset: 0x1C807, size: 0x8, addend: 0x0, symName: __ZNSt3__112__hash_tableINS_17__hash_value_typeINS_12basic_stringIcNS_11char_traitsIcEENS_9allocatorIcEEEEiEENS_22__unordered_map_hasherIS7_S8_NS_4hashIS7_EENS_8equal_toIS7_EELb1EEENS_21__unordered_map_equalIS7_S8_SD_SB_Lb1EEENS5_IS8_EEE17__deallocate_nodeEPNS_16__hash_node_baseIPNS_11__hash_nodeIS8_PvEEEE, symObjAddr: 0xA180, symBinAddr: 0x10000E88C, symSize: 0xBC }
  - { offsetInCU: 0x1C871, offset: 0x1C871, size: 0x8, addend: 0x0, symName: __ZNSt3__117__compressed_pairINS_16__hash_node_baseIPNS_11__hash_nodeINS_17__hash_value_typeINS_12basic_stringIcNS_11char_traitsIcEENS_9allocatorIcEEEEiEEPvEEEENS7_ISC_EEE5firstB7v160006Ev, symObjAddr: 0xA23C, symBinAddr: 0x10000E948, symSize: 0x24 }
  - { offsetInCU: 0x1C897, offset: 0x1C897, size: 0x8, addend: 0x0, symName: __ZNSt3__112__hash_tableINS_17__hash_value_typeINS_12basic_stringIcNS_11char_traitsIcEENS_9allocatorIcEEEEiEENS_22__unordered_map_hasherIS7_S8_NS_4hashIS7_EENS_8equal_toIS7_EELb1EEENS_21__unordered_map_equalIS7_S8_SD_SB_Lb1EEENS5_IS8_EEE12__node_allocB7v160006Ev, symObjAddr: 0xA270, symBinAddr: 0x10000E97C, symSize: 0x28 }
  - { offsetInCU: 0x1C8BD, offset: 0x1C8BD, size: 0x8, addend: 0x0, symName: __ZNSt3__116__hash_node_baseIPNS_11__hash_nodeINS_17__hash_value_typeINS_12basic_stringIcNS_11char_traitsIcEENS_9allocatorIcEEEEiEEPvEEE8__upcastB7v160006Ev, symObjAddr: 0xA298, symBinAddr: 0x10000E9A4, symSize: 0x24 }
  - { offsetInCU: 0x1C8E3, offset: 0x1C8E3, size: 0x8, addend: 0x0, symName: __ZNSt3__116allocator_traitsINS_9allocatorINS_11__hash_nodeINS_17__hash_value_typeINS_12basic_stringIcNS_11char_traitsIcEENS1_IcEEEEiEEPvEEEEE7destroyB7v160006INS_4pairIKS8_iEEvvEEvRSC_PT_, symObjAddr: 0xA2BC, symBinAddr: 0x10000E9C8, symSize: 0x28 }
  - { offsetInCU: 0x1C91D, offset: 0x1C91D, size: 0x8, addend: 0x0, symName: __ZNSt3__122__hash_key_value_typesINS_17__hash_value_typeINS_12basic_stringIcNS_11char_traitsIcEENS_9allocatorIcEEEEiEEE9__get_ptrB7v160006ERS8_, symObjAddr: 0xA2E4, symBinAddr: 0x10000E9F0, symSize: 0x24 }
  - { offsetInCU: 0x1C940, offset: 0x1C940, size: 0x8, addend: 0x0, symName: __ZNSt3__116allocator_traitsINS_9allocatorINS_11__hash_nodeINS_17__hash_value_typeINS_12basic_stringIcNS_11char_traitsIcEENS1_IcEEEEiEEPvEEEEE10deallocateB7v160006ERSC_PSB_m, symObjAddr: 0xA308, symBinAddr: 0x10000EA14, symSize: 0x34 }
  - { offsetInCU: 0x1C982, offset: 0x1C982, size: 0x8, addend: 0x0, symName: __ZNSt3__117__compressed_pairINS_16__hash_node_baseIPNS_11__hash_nodeINS_17__hash_value_typeINS_12basic_stringIcNS_11char_traitsIcEENS_9allocatorIcEEEEiEEPvEEEENS7_ISC_EEE6secondB7v160006Ev, symObjAddr: 0xA33C, symBinAddr: 0x10000EA48, symSize: 0x24 }
  - { offsetInCU: 0x1C9A8, offset: 0x1C9A8, size: 0x8, addend: 0x0, symName: __ZNSt3__122__compressed_pair_elemINS_9allocatorINS_11__hash_nodeINS_17__hash_value_typeINS_12basic_stringIcNS_11char_traitsIcEENS1_IcEEEEiEEPvEEEELi1ELb1EE5__getB7v160006Ev, symObjAddr: 0xA360, symBinAddr: 0x10000EA6C, symSize: 0x14 }
  - { offsetInCU: 0x1C9CE, offset: 0x1C9CE, size: 0x8, addend: 0x0, symName: __ZNSt3__114pointer_traitsIPNS_16__hash_node_baseIPNS_11__hash_nodeINS_17__hash_value_typeINS_12basic_stringIcNS_11char_traitsIcEENS_9allocatorIcEEEEiEEPvEEEEE10pointer_toB7v160006ERSE_, symObjAddr: 0xA374, symBinAddr: 0x10000EA80, symSize: 0x14 }
  - { offsetInCU: 0x1C9F1, offset: 0x1C9F1, size: 0x8, addend: 0x0, symName: __ZNSt3__14pairIKNS_12basic_stringIcNS_11char_traitsIcEENS_9allocatorIcEEEEiED1Ev, symObjAddr: 0xA388, symBinAddr: 0x10000EA94, symSize: 0x2C }
  - { offsetInCU: 0x1CA1D, offset: 0x1CA1D, size: 0x8, addend: 0x0, symName: __ZNSt3__14pairIKNS_12basic_stringIcNS_11char_traitsIcEENS_9allocatorIcEEEEiED2Ev, symObjAddr: 0xA3B4, symBinAddr: 0x10000EAC0, symSize: 0x2C }
  - { offsetInCU: 0x1CA49, offset: 0x1CA49, size: 0x8, addend: 0x0, symName: __ZNSt3__117__hash_value_typeINS_12basic_stringIcNS_11char_traitsIcEENS_9allocatorIcEEEEiE11__get_valueB7v160006Ev, symObjAddr: 0xA3E0, symBinAddr: 0x10000EAEC, symSize: 0x14 }
  - { offsetInCU: 0x1CA6F, offset: 0x1CA6F, size: 0x8, addend: 0x0, symName: __ZNSt3__19allocatorINS_11__hash_nodeINS_17__hash_value_typeINS_12basic_stringIcNS_11char_traitsIcEENS0_IcEEEEiEEPvEEE10deallocateB7v160006EPSA_m, symObjAddr: 0xA3F4, symBinAddr: 0x10000EB00, symSize: 0x74 }
  - { offsetInCU: 0x1CAB1, offset: 0x1CAB1, size: 0x8, addend: 0x0, symName: __ZNSt3__122__compressed_pair_elemINS_16__hash_node_baseIPNS_11__hash_nodeINS_17__hash_value_typeINS_12basic_stringIcNS_11char_traitsIcEENS_9allocatorIcEEEEiEEPvEEEELi0ELb0EE5__getB7v160006Ev, symObjAddr: 0xA468, symBinAddr: 0x10000EB74, symSize: 0x14 }
  - { offsetInCU: 0x1CAD7, offset: 0x1CAD7, size: 0x8, addend: 0x0, symName: __ZNSt3__113unordered_mapINS_12basic_stringIcNS_11char_traitsIcEENS_9allocatorIcEEEEiNS_4hashIS6_EENS_8equal_toIS6_EENS4_INS_4pairIKS6_iEEEEED2B7v160006Ev, symObjAddr: 0xA47C, symBinAddr: 0x10000EB88, symSize: 0x2C }
  - { offsetInCU: 0x1CB01, offset: 0x1CB01, size: 0x8, addend: 0x0, symName: __ZNSt3__16vectorI4FaceNS_9allocatorIS1_EEE11__make_iterB7v160006EPS1_, symObjAddr: 0xA4A8, symBinAddr: 0x10000EBB4, symSize: 0x34 }
  - { offsetInCU: 0x1CB36, offset: 0x1CB36, size: 0x8, addend: 0x0, symName: __ZNSt3__111__wrap_iterIP4FaceEC1B7v160006EPKvS2_, symObjAddr: 0xA4DC, symBinAddr: 0x10000EBE8, symSize: 0x3C }
  - { offsetInCU: 0x1CB7C, offset: 0x1CB7C, size: 0x8, addend: 0x0, symName: __ZNSt3__111__wrap_iterIP4FaceEC2B7v160006EPKvS2_, symObjAddr: 0xA518, symBinAddr: 0x10000EC24, symSize: 0x24 }
  - { offsetInCU: 0x1CBC2, offset: 0x1CBC2, size: 0x8, addend: 0x0, symName: __ZNKSt3__111__wrap_iterIP4FaceE4baseB7v160006Ev, symObjAddr: 0xA584, symBinAddr: 0x10000EC90, symSize: 0x18 }
  - { offsetInCU: 0x1CBE8, offset: 0x1CBE8, size: 0x8, addend: 0x0, symName: __ZN3glm3vecILi3EfLNS_9qualifierE0EEC2ERKS2_, symObjAddr: 0xA59C, symBinAddr: 0x10000ECA8, symSize: 0x3C }
  - { offsetInCU: 0x1CC22, offset: 0x1CC22, size: 0x8, addend: 0x0, symName: __ZNSt3__114basic_iostreamIcNS_11char_traitsIcEEEC2B7v160006EPNS_15basic_streambufIcS2_EE, symObjAddr: 0xA5D8, symBinAddr: 0x10000ECE4, symSize: 0xB4 }
  - { offsetInCU: 0x1CC68, offset: 0x1CC68, size: 0x8, addend: 0x0, symName: __ZNSt3__115basic_stringbufIcNS_11char_traitsIcEENS_9allocatorIcEEEC1B7v160006Ej, symObjAddr: 0xA68C, symBinAddr: 0x10000ED98, symSize: 0x34 }
  - { offsetInCU: 0x1CCA0, offset: 0x1CCA0, size: 0x8, addend: 0x0, symName: __ZNSt3__113basic_ostreamIcNS_11char_traitsIcEEEC2B7v160006Ev, symObjAddr: 0xA6C0, symBinAddr: 0x10000EDCC, symSize: 0x34 }
  - { offsetInCU: 0x1CCD7, offset: 0x1CCD7, size: 0x8, addend: 0x0, symName: __ZNSt3__115basic_stringbufIcNS_11char_traitsIcEENS_9allocatorIcEEEC2B7v160006Ej, symObjAddr: 0xA6F4, symBinAddr: 0x10000EE00, symSize: 0x90 }
  - { offsetInCU: 0x1CD0F, offset: 0x1CD0F, size: 0x8, addend: 0x0, symName: __ZNKSt3__112__hash_tableINS_17__hash_value_typeINS_12basic_stringIcNS_11char_traitsIcEENS_9allocatorIcEEEEiEENS_22__unordered_map_hasherIS7_S8_NS_4hashIS7_EENS_8equal_toIS7_EELb1EEENS_21__unordered_map_equalIS7_S8_SD_SB_Lb1EEENS5_IS8_EEE14__count_uniqueIS7_EEmRKT_, symObjAddr: 0xA784, symBinAddr: 0x10000EE90, symSize: 0x64 }
  - { offsetInCU: 0x1CD4F, offset: 0x1CD4F, size: 0x8, addend: 0x0, symName: __ZNKSt3__112__hash_tableINS_17__hash_value_typeINS_12basic_stringIcNS_11char_traitsIcEENS_9allocatorIcEEEEiEENS_22__unordered_map_hasherIS7_S8_NS_4hashIS7_EENS_8equal_toIS7_EELb1EEENS_21__unordered_map_equalIS7_S8_SD_SB_Lb1EEENS5_IS8_EEE4findIS7_EENS_21__hash_const_iteratorIPNS_11__hash_nodeIS8_PvEEEERKT_, symObjAddr: 0xA81C, symBinAddr: 0x10000EF28, symSize: 0x1BC }
  - { offsetInCU: 0x1CDDA, offset: 0x1CDDA, size: 0x8, addend: 0x0, symName: __ZNKSt3__112__hash_tableINS_17__hash_value_typeINS_12basic_stringIcNS_11char_traitsIcEENS_9allocatorIcEEEEiEENS_22__unordered_map_hasherIS7_S8_NS_4hashIS7_EENS_8equal_toIS7_EELb1EEENS_21__unordered_map_equalIS7_S8_SD_SB_Lb1EEENS5_IS8_EEE3endEv, symObjAddr: 0xA9D8, symBinAddr: 0x10000F0E4, symSize: 0x30 }
  - { offsetInCU: 0x1CE02, offset: 0x1CE02, size: 0x8, addend: 0x0, symName: __ZNKSt3__112__hash_tableINS_17__hash_value_typeINS_12basic_stringIcNS_11char_traitsIcEENS_9allocatorIcEEEEiEENS_22__unordered_map_hasherIS7_S8_NS_4hashIS7_EENS_8equal_toIS7_EELb1EEENS_21__unordered_map_equalIS7_S8_SD_SB_Lb1EEENS5_IS8_EEE13hash_functionB7v160006Ev, symObjAddr: 0xAA38, symBinAddr: 0x10000F144, symSize: 0x28 }
  - { offsetInCU: 0x1CE28, offset: 0x1CE28, size: 0x8, addend: 0x0, symName: __ZNKSt3__122__unordered_map_hasherINS_12basic_stringIcNS_11char_traitsIcEENS_9allocatorIcEEEENS_17__hash_value_typeIS6_iEENS_4hashIS6_EENS_8equal_toIS6_EELb1EEclB7v160006ERKS6_, symObjAddr: 0xAA60, symBinAddr: 0x10000F16C, symSize: 0x2C }
  - { offsetInCU: 0x1CE5D, offset: 0x1CE5D, size: 0x8, addend: 0x0, symName: __ZNKSt3__112__hash_tableINS_17__hash_value_typeINS_12basic_stringIcNS_11char_traitsIcEENS_9allocatorIcEEEEiEENS_22__unordered_map_hasherIS7_S8_NS_4hashIS7_EENS_8equal_toIS7_EELb1EEENS_21__unordered_map_equalIS7_S8_SD_SB_Lb1EEENS5_IS8_EEE12bucket_countB7v160006Ev, symObjAddr: 0xAA8C, symBinAddr: 0x10000F198, symSize: 0x28 }
  - { offsetInCU: 0x1CE83, offset: 0x1CE83, size: 0x8, addend: 0x0, symName: __ZNKSt3__110unique_ptrIA_PNS_16__hash_node_baseIPNS_11__hash_nodeINS_17__hash_value_typeINS_12basic_stringIcNS_11char_traitsIcEENS_9allocatorIcEEEEiEEPvEEEENS_25__bucket_list_deallocatorINS7_ISF_EEEEEixB7v160006Em, symObjAddr: 0xAB4C, symBinAddr: 0x10000F258, symSize: 0x34 }
  - { offsetInCU: 0x1CEB8, offset: 0x1CEB8, size: 0x8, addend: 0x0, symName: __ZNKSt3__116__hash_node_baseIPNS_11__hash_nodeINS_17__hash_value_typeINS_12basic_stringIcNS_11char_traitsIcEENS_9allocatorIcEEEEiEEPvEEE6__hashB7v160006Ev, symObjAddr: 0xAB80, symBinAddr: 0x10000F28C, symSize: 0x18 }
  - { offsetInCU: 0x1CEDE, offset: 0x1CEDE, size: 0x8, addend: 0x0, symName: __ZNKSt3__112__hash_tableINS_17__hash_value_typeINS_12basic_stringIcNS_11char_traitsIcEENS_9allocatorIcEEEEiEENS_22__unordered_map_hasherIS7_S8_NS_4hashIS7_EENS_8equal_toIS7_EELb1EEENS_21__unordered_map_equalIS7_S8_SD_SB_Lb1EEENS5_IS8_EEE6key_eqB7v160006Ev, symObjAddr: 0xAB98, symBinAddr: 0x10000F2A4, symSize: 0x28 }
  - { offsetInCU: 0x1CF04, offset: 0x1CF04, size: 0x8, addend: 0x0, symName: __ZNKSt3__121__unordered_map_equalINS_12basic_stringIcNS_11char_traitsIcEENS_9allocatorIcEEEENS_17__hash_value_typeIS6_iEENS_8equal_toIS6_EENS_4hashIS6_EELb1EEclB7v160006ERKS8_RKS6_, symObjAddr: 0xABC0, symBinAddr: 0x10000F2CC, symSize: 0x48 }
  - { offsetInCU: 0x1CF48, offset: 0x1CF48, size: 0x8, addend: 0x0, symName: __ZNSt3__121__hash_const_iteratorIPNS_11__hash_nodeINS_17__hash_value_typeINS_12basic_stringIcNS_11char_traitsIcEENS_9allocatorIcEEEEiEEPvEEEC1B7v160006EPNS_16__hash_node_baseISC_EEPKv, symObjAddr: 0xAC08, symBinAddr: 0x10000F314, symSize: 0x3C }
  - { offsetInCU: 0x1CF90, offset: 0x1CF90, size: 0x8, addend: 0x0, symName: __ZNKSt3__117__compressed_pairImNS_22__unordered_map_hasherINS_12basic_stringIcNS_11char_traitsIcEENS_9allocatorIcEEEENS_17__hash_value_typeIS7_iEENS_4hashIS7_EENS_8equal_toIS7_EELb1EEEE6secondB7v160006Ev, symObjAddr: 0xAC44, symBinAddr: 0x10000F350, symSize: 0x24 }
  - { offsetInCU: 0x1CFB6, offset: 0x1CFB6, size: 0x8, addend: 0x0, symName: __ZNKSt3__122__compressed_pair_elemINS_22__unordered_map_hasherINS_12basic_stringIcNS_11char_traitsIcEENS_9allocatorIcEEEENS_17__hash_value_typeIS7_iEENS_4hashIS7_EENS_8equal_toIS7_EELb1EEELi1ELb1EE5__getB7v160006Ev, symObjAddr: 0xAC68, symBinAddr: 0x10000F374, symSize: 0x14 }
  - { offsetInCU: 0x1CFDC, offset: 0x1CFDC, size: 0x8, addend: 0x0, symName: __ZNKSt3__113__string_hashIcNS_9allocatorIcEEEclERKNS_12basic_stringIcNS_11char_traitsIcEES2_EE, symObjAddr: 0xAC7C, symBinAddr: 0x10000F388, symSize: 0x78 }
  - { offsetInCU: 0x1D011, offset: 0x1D011, size: 0x8, addend: 0x0, symName: __ZNSt3__121__murmur2_or_cityhashImLm64EEclEPKvm, symObjAddr: 0xAD30, symBinAddr: 0x10000F43C, symSize: 0x410 }
  - { offsetInCU: 0x1D0AC, offset: 0x1D0AC, size: 0x8, addend: 0x0, symName: __ZNSt3__121__murmur2_or_cityhashImLm64EE18__hash_len_0_to_16EPKcm, symObjAddr: 0xB140, symBinAddr: 0x10000F84C, symSize: 0x1C0 }
  - { offsetInCU: 0x1D188, offset: 0x1D188, size: 0x8, addend: 0x0, symName: __ZNSt3__121__murmur2_or_cityhashImLm64EE19__hash_len_17_to_32EPKcm, symObjAddr: 0xB300, symBinAddr: 0x10000FA0C, symSize: 0x130 }
  - { offsetInCU: 0x1D1F1, offset: 0x1D1F1, size: 0x8, addend: 0x0, symName: __ZNSt3__121__murmur2_or_cityhashImLm64EE19__hash_len_33_to_64EPKcm, symObjAddr: 0xB430, symBinAddr: 0x10000FB3C, symSize: 0x2B8 }
  - { offsetInCU: 0x1D2A3, offset: 0x1D2A3, size: 0x8, addend: 0x0, symName: __ZNSt3__121__murmur2_or_cityhashImLm64EE13__hash_len_16Emm, symObjAddr: 0xB708, symBinAddr: 0x10000FE14, symSize: 0x80 }
  - { offsetInCU: 0x1D2FE, offset: 0x1D2FE, size: 0x8, addend: 0x0, symName: __ZNSt3__121__murmur2_or_cityhashImLm64EE29__weak_hash_len_32_with_seedsEPKcmm, symObjAddr: 0xB788, symBinAddr: 0x10000FE94, symSize: 0x88 }
  - { offsetInCU: 0x1D33D, offset: 0x1D33D, size: 0x8, addend: 0x0, symName: __ZNSt3__121__murmur2_or_cityhashImLm64EE8__rotateEmi, symObjAddr: 0xB810, symBinAddr: 0x10000FF1C, symSize: 0x64 }
  - { offsetInCU: 0x1D36E, offset: 0x1D36E, size: 0x8, addend: 0x0, symName: __ZNSt3__14pairImmEaSB7v160006ERKS1_, symObjAddr: 0xB874, symBinAddr: 0x10000FF80, symSize: 0x30 }
  - { offsetInCU: 0x1D3A2, offset: 0x1D3A2, size: 0x8, addend: 0x0, symName: __ZNSt3__121__murmur2_or_cityhashImLm64EE11__shift_mixEm, symObjAddr: 0xB8E0, symBinAddr: 0x10000FFEC, symSize: 0x1C }
  - { offsetInCU: 0x1D3C5, offset: 0x1D3C5, size: 0x8, addend: 0x0, symName: __ZNSt3__121__murmur2_or_cityhashImLm64EE22__rotate_by_at_least_1Emi, symObjAddr: 0xB8FC, symBinAddr: 0x100010008, symSize: 0x38 }
  - { offsetInCU: 0x1D3F6, offset: 0x1D3F6, size: 0x8, addend: 0x0, symName: __ZNSt3__121__murmur2_or_cityhashImLm64EE29__weak_hash_len_32_with_seedsEmmmmmm, symObjAddr: 0xB954, symBinAddr: 0x100010060, symSize: 0xD8 }
  - { offsetInCU: 0x1D46D, offset: 0x1D46D, size: 0x8, addend: 0x0, symName: __ZNSt3__14pairImmEC1B7v160006ERKmS3_, symObjAddr: 0xBA2C, symBinAddr: 0x100010138, symSize: 0x3C }
  - { offsetInCU: 0x1D4B3, offset: 0x1D4B3, size: 0x8, addend: 0x0, symName: __ZNSt3__14pairImmEC2B7v160006ERKmS3_, symObjAddr: 0xBA68, symBinAddr: 0x100010174, symSize: 0x34 }
  - { offsetInCU: 0x1D4F9, offset: 0x1D4F9, size: 0x8, addend: 0x0, symName: __ZNKSt3__110unique_ptrIA_PNS_16__hash_node_baseIPNS_11__hash_nodeINS_17__hash_value_typeINS_12basic_stringIcNS_11char_traitsIcEENS_9allocatorIcEEEEiEEPvEEEENS_25__bucket_list_deallocatorINS7_ISF_EEEEE11get_deleterB7v160006Ev, symObjAddr: 0xBA9C, symBinAddr: 0x1000101A8, symSize: 0x24 }
  - { offsetInCU: 0x1D51F, offset: 0x1D51F, size: 0x8, addend: 0x0, symName: __ZNKSt3__125__bucket_list_deallocatorINS_9allocatorIPNS_16__hash_node_baseIPNS_11__hash_nodeINS_17__hash_value_typeINS_12basic_stringIcNS_11char_traitsIcEENS1_IcEEEEiEEPvEEEEEEE4sizeB7v160006Ev, symObjAddr: 0xBAC0, symBinAddr: 0x1000101CC, symSize: 0x28 }
  - { offsetInCU: 0x1D545, offset: 0x1D545, size: 0x8, addend: 0x0, symName: __ZNKSt3__117__compressed_pairIPPNS_16__hash_node_baseIPNS_11__hash_nodeINS_17__hash_value_typeINS_12basic_stringIcNS_11char_traitsIcEENS_9allocatorIcEEEEiEEPvEEEENS_25__bucket_list_deallocatorINS7_ISF_EEEEE6secondB7v160006Ev, symObjAddr: 0xBAE8, symBinAddr: 0x1000101F4, symSize: 0x28 }
  - { offsetInCU: 0x1D56B, offset: 0x1D56B, size: 0x8, addend: 0x0, symName: __ZNKSt3__122__compressed_pair_elemINS_25__bucket_list_deallocatorINS_9allocatorIPNS_16__hash_node_baseIPNS_11__hash_nodeINS_17__hash_value_typeINS_12basic_stringIcNS_11char_traitsIcEENS2_IcEEEEiEEPvEEEEEEEELi1ELb0EE5__getB7v160006Ev, symObjAddr: 0xBB10, symBinAddr: 0x10001021C, symSize: 0x14 }
  - { offsetInCU: 0x1D591, offset: 0x1D591, size: 0x8, addend: 0x0, symName: __ZNKSt3__117__compressed_pairImNS_9allocatorIPNS_16__hash_node_baseIPNS_11__hash_nodeINS_17__hash_value_typeINS_12basic_stringIcNS_11char_traitsIcEENS1_IcEEEEiEEPvEEEEEEE5firstB7v160006Ev, symObjAddr: 0xBB24, symBinAddr: 0x100010230, symSize: 0x24 }
  - { offsetInCU: 0x1D5B7, offset: 0x1D5B7, size: 0x8, addend: 0x0, symName: __ZNKSt3__122__compressed_pair_elemImLi0ELb0EE5__getB7v160006Ev, symObjAddr: 0xBB48, symBinAddr: 0x100010254, symSize: 0x14 }
  - { offsetInCU: 0x1D5DD, offset: 0x1D5DD, size: 0x8, addend: 0x0, symName: __ZNKSt3__117__compressed_pairIPPNS_16__hash_node_baseIPNS_11__hash_nodeINS_17__hash_value_typeINS_12basic_stringIcNS_11char_traitsIcEENS_9allocatorIcEEEEiEEPvEEEENS_25__bucket_list_deallocatorINS7_ISF_EEEEE5firstB7v160006Ev, symObjAddr: 0xBB5C, symBinAddr: 0x100010268, symSize: 0x24 }
  - { offsetInCU: 0x1D603, offset: 0x1D603, size: 0x8, addend: 0x0, symName: __ZNKSt3__122__compressed_pair_elemIPPNS_16__hash_node_baseIPNS_11__hash_nodeINS_17__hash_value_typeINS_12basic_stringIcNS_11char_traitsIcEENS_9allocatorIcEEEEiEEPvEEEELi0ELb0EE5__getB7v160006Ev, symObjAddr: 0xBB80, symBinAddr: 0x10001028C, symSize: 0x14 }
  - { offsetInCU: 0x1D629, offset: 0x1D629, size: 0x8, addend: 0x0, symName: __ZNKSt3__117__compressed_pairIfNS_21__unordered_map_equalINS_12basic_stringIcNS_11char_traitsIcEENS_9allocatorIcEEEENS_17__hash_value_typeIS7_iEENS_8equal_toIS7_EENS_4hashIS7_EELb1EEEE6secondB7v160006Ev, symObjAddr: 0xBB94, symBinAddr: 0x1000102A0, symSize: 0x24 }
  - { offsetInCU: 0x1D64F, offset: 0x1D64F, size: 0x8, addend: 0x0, symName: __ZNKSt3__122__compressed_pair_elemINS_21__unordered_map_equalINS_12basic_stringIcNS_11char_traitsIcEENS_9allocatorIcEEEENS_17__hash_value_typeIS7_iEENS_8equal_toIS7_EENS_4hashIS7_EELb1EEELi1ELb1EE5__getB7v160006Ev, symObjAddr: 0xBBB8, symBinAddr: 0x1000102C4, symSize: 0x14 }
  - { offsetInCU: 0x1D675, offset: 0x1D675, size: 0x8, addend: 0x0, symName: __ZNKSt3__18equal_toINS_12basic_stringIcNS_11char_traitsIcEENS_9allocatorIcEEEEEclB7v160006ERKS6_S9_, symObjAddr: 0xBBCC, symBinAddr: 0x1000102D8, symSize: 0x34 }
  - { offsetInCU: 0x1D6B9, offset: 0x1D6B9, size: 0x8, addend: 0x0, symName: __ZNKSt3__117__hash_value_typeINS_12basic_stringIcNS_11char_traitsIcEENS_9allocatorIcEEEEiE11__get_valueB7v160006Ev, symObjAddr: 0xBC00, symBinAddr: 0x10001030C, symSize: 0x14 }
  - { offsetInCU: 0x1D6DF, offset: 0x1D6DF, size: 0x8, addend: 0x0, symName: __ZNSt3__111char_traitsIcE7compareEPKcS3_m, symObjAddr: 0xBD5C, symBinAddr: 0x100010468, symSize: 0x80 }
  - { offsetInCU: 0x1D71E, offset: 0x1D71E, size: 0x8, addend: 0x0, symName: __ZNSt3__121__hash_const_iteratorIPNS_11__hash_nodeINS_17__hash_value_typeINS_12basic_stringIcNS_11char_traitsIcEENS_9allocatorIcEEEEiEEPvEEEC2B7v160006EPNS_16__hash_node_baseISC_EEPKv, symObjAddr: 0xBE10, symBinAddr: 0x10001051C, symSize: 0x24 }
  - { offsetInCU: 0x1D766, offset: 0x1D766, size: 0x8, addend: 0x0, symName: __ZNSt3__113unordered_mapINS_12basic_stringIcNS_11char_traitsIcEENS_9allocatorIcEEEEiNS_4hashIS6_EENS_8equal_toIS6_EENS4_INS_4pairIKS6_iEEEEE4findB7v160006ERSC_, symObjAddr: 0xBE34, symBinAddr: 0x100010540, symSize: 0x40 }
  - { offsetInCU: 0x1D79B, offset: 0x1D79B, size: 0x8, addend: 0x0, symName: __ZNSt3__113unordered_mapINS_12basic_stringIcNS_11char_traitsIcEENS_9allocatorIcEEEEiNS_4hashIS6_EENS_8equal_toIS6_EENS4_INS_4pairIKS6_iEEEEE3endB7v160006Ev, symObjAddr: 0xBEA4, symBinAddr: 0x1000105B0, symSize: 0x38 }
  - { offsetInCU: 0x1D7C1, offset: 0x1D7C1, size: 0x8, addend: 0x0, symName: __ZNKSt3__119__hash_map_iteratorINS_15__hash_iteratorIPNS_11__hash_nodeINS_17__hash_value_typeINS_12basic_stringIcNS_11char_traitsIcEENS_9allocatorIcEEEEiEEPvEEEEEptB7v160006Ev, symObjAddr: 0xBEDC, symBinAddr: 0x1000105E8, symSize: 0x2C }
  - { offsetInCU: 0x1D7E7, offset: 0x1D7E7, size: 0x8, addend: 0x0, symName: __ZNSt3__113unordered_mapINS_12basic_stringIcNS_11char_traitsIcEENS_9allocatorIcEEEEiNS_4hashIS6_EENS_8equal_toIS6_EENS4_INS_4pairIKS6_iEEEEE25__construct_node_with_keyERSC_, symObjAddr: 0xBF08, symBinAddr: 0x100010614, symSize: 0x144 }
  - { offsetInCU: 0x1D83D, offset: 0x1D83D, size: 0x8, addend: 0x0, symName: __ZNSt3__112__hash_tableINS_17__hash_value_typeINS_12basic_stringIcNS_11char_traitsIcEENS_9allocatorIcEEEEiEENS_22__unordered_map_hasherIS7_S8_NS_4hashIS7_EENS_8equal_toIS7_EELb1EEENS_21__unordered_map_equalIS7_S8_SD_SB_Lb1EEENS5_IS8_EEE20__node_insert_uniqueEPNS_11__hash_nodeIS8_PvEE, symObjAddr: 0xC04C, symBinAddr: 0x100010758, symSize: 0xC8 }
  - { offsetInCU: 0x1D892, offset: 0x1D892, size: 0x8, addend: 0x0, symName: __ZNKSt3__110unique_ptrINS_11__hash_nodeINS_17__hash_value_typeINS_12basic_stringIcNS_11char_traitsIcEENS_9allocatorIcEEEEiEEPvEENS_26__hash_map_node_destructorINS6_ISB_EEEEE3getB7v160006Ev, symObjAddr: 0xC114, symBinAddr: 0x100010820, symSize: 0x28 }
  - { offsetInCU: 0x1D8B8, offset: 0x1D8B8, size: 0x8, addend: 0x0, symName: __ZNSt3__14pairINS_19__hash_map_iteratorINS_15__hash_iteratorIPNS_11__hash_nodeINS_17__hash_value_typeINS_12basic_stringIcNS_11char_traitsIcEENS_9allocatorIcEEEEiEEPvEEEEEEbEC1B7v160006ISF_bEERKNS0_IT_T0_EE, symObjAddr: 0xC13C, symBinAddr: 0x100010848, symSize: 0x34 }
  - { offsetInCU: 0x1D902, offset: 0x1D902, size: 0x8, addend: 0x0, symName: __ZNSt3__110unique_ptrINS_11__hash_nodeINS_17__hash_value_typeINS_12basic_stringIcNS_11char_traitsIcEENS_9allocatorIcEEEEiEEPvEENS_26__hash_map_node_destructorINS6_ISB_EEEEE7releaseB7v160006Ev, symObjAddr: 0xC170, symBinAddr: 0x10001087C, symSize: 0x44 }
  - { offsetInCU: 0x1D937, offset: 0x1D937, size: 0x8, addend: 0x0, symName: __ZNSt3__110unique_ptrINS_11__hash_nodeINS_17__hash_value_typeINS_12basic_stringIcNS_11char_traitsIcEENS_9allocatorIcEEEEiEEPvEENS_26__hash_map_node_destructorINS6_ISB_EEEEED1B7v160006Ev, symObjAddr: 0xC1B4, symBinAddr: 0x1000108C0, symSize: 0x2C }
  - { offsetInCU: 0x1D961, offset: 0x1D961, size: 0x8, addend: 0x0, symName: __ZNSt3__112__hash_tableINS_17__hash_value_typeINS_12basic_stringIcNS_11char_traitsIcEENS_9allocatorIcEEEEiEENS_22__unordered_map_hasherIS7_S8_NS_4hashIS7_EENS_8equal_toIS7_EELb1EEENS_21__unordered_map_equalIS7_S8_SD_SB_Lb1EEENS5_IS8_EEE4findIS7_EENS_15__hash_iteratorIPNS_11__hash_nodeIS8_PvEEEERKT_, symObjAddr: 0xC1E0, symBinAddr: 0x1000108EC, symSize: 0x1B4 }
  - { offsetInCU: 0x1D9EC, offset: 0x1D9EC, size: 0x8, addend: 0x0, symName: __ZNSt3__119__hash_map_iteratorINS_15__hash_iteratorIPNS_11__hash_nodeINS_17__hash_value_typeINS_12basic_stringIcNS_11char_traitsIcEENS_9allocatorIcEEEEiEEPvEEEEEC1B7v160006ESE_, symObjAddr: 0xC394, symBinAddr: 0x100010AA0, symSize: 0x34 }
  - { offsetInCU: 0x1DA25, offset: 0x1DA25, size: 0x8, addend: 0x0, symName: __ZNSt3__112__hash_tableINS_17__hash_value_typeINS_12basic_stringIcNS_11char_traitsIcEENS_9allocatorIcEEEEiEENS_22__unordered_map_hasherIS7_S8_NS_4hashIS7_EENS_8equal_toIS7_EELb1EEENS_21__unordered_map_equalIS7_S8_SD_SB_Lb1EEENS5_IS8_EEE13hash_functionB7v160006Ev, symObjAddr: 0xC3C8, symBinAddr: 0x100010AD4, symSize: 0x28 }
  - { offsetInCU: 0x1DA4B, offset: 0x1DA4B, size: 0x8, addend: 0x0, symName: __ZNSt3__112__hash_tableINS_17__hash_value_typeINS_12basic_stringIcNS_11char_traitsIcEENS_9allocatorIcEEEEiEENS_22__unordered_map_hasherIS7_S8_NS_4hashIS7_EENS_8equal_toIS7_EELb1EEENS_21__unordered_map_equalIS7_S8_SD_SB_Lb1EEENS5_IS8_EEE6key_eqB7v160006Ev, symObjAddr: 0xC3F0, symBinAddr: 0x100010AFC, symSize: 0x28 }
  - { offsetInCU: 0x1DA71, offset: 0x1DA71, size: 0x8, addend: 0x0, symName: __ZNSt3__115__hash_iteratorIPNS_11__hash_nodeINS_17__hash_value_typeINS_12basic_stringIcNS_11char_traitsIcEENS_9allocatorIcEEEEiEEPvEEEC1B7v160006EPNS_16__hash_node_baseISC_EEPKv, symObjAddr: 0xC418, symBinAddr: 0x100010B24, symSize: 0x3C }
  - { offsetInCU: 0x1DAB9, offset: 0x1DAB9, size: 0x8, addend: 0x0, symName: __ZNSt3__112__hash_tableINS_17__hash_value_typeINS_12basic_stringIcNS_11char_traitsIcEENS_9allocatorIcEEEEiEENS_22__unordered_map_hasherIS7_S8_NS_4hashIS7_EENS_8equal_toIS7_EELb1EEENS_21__unordered_map_equalIS7_S8_SD_SB_Lb1EEENS5_IS8_EEE3endEv, symObjAddr: 0xC454, symBinAddr: 0x100010B60, symSize: 0x30 }
  - { offsetInCU: 0x1DAE1, offset: 0x1DAE1, size: 0x8, addend: 0x0, symName: __ZNSt3__117__compressed_pairImNS_22__unordered_map_hasherINS_12basic_stringIcNS_11char_traitsIcEENS_9allocatorIcEEEENS_17__hash_value_typeIS7_iEENS_4hashIS7_EENS_8equal_toIS7_EELb1EEEE6secondB7v160006Ev, symObjAddr: 0xC484, symBinAddr: 0x100010B90, symSize: 0x24 }
  - { offsetInCU: 0x1DB07, offset: 0x1DB07, size: 0x8, addend: 0x0, symName: __ZNSt3__122__compressed_pair_elemINS_22__unordered_map_hasherINS_12basic_stringIcNS_11char_traitsIcEENS_9allocatorIcEEEENS_17__hash_value_typeIS7_iEENS_4hashIS7_EENS_8equal_toIS7_EELb1EEELi1ELb1EE5__getB7v160006Ev, symObjAddr: 0xC4A8, symBinAddr: 0x100010BB4, symSize: 0x14 }
  - { offsetInCU: 0x1DB2D, offset: 0x1DB2D, size: 0x8, addend: 0x0, symName: __ZNSt3__117__compressed_pairIfNS_21__unordered_map_equalINS_12basic_stringIcNS_11char_traitsIcEENS_9allocatorIcEEEENS_17__hash_value_typeIS7_iEENS_8equal_toIS7_EENS_4hashIS7_EELb1EEEE6secondB7v160006Ev, symObjAddr: 0xC4BC, symBinAddr: 0x100010BC8, symSize: 0x24 }
  - { offsetInCU: 0x1DB53, offset: 0x1DB53, size: 0x8, addend: 0x0, symName: __ZNSt3__122__compressed_pair_elemINS_21__unordered_map_equalINS_12basic_stringIcNS_11char_traitsIcEENS_9allocatorIcEEEENS_17__hash_value_typeIS7_iEENS_8equal_toIS7_EENS_4hashIS7_EELb1EEELi1ELb1EE5__getB7v160006Ev, symObjAddr: 0xC4E0, symBinAddr: 0x100010BEC, symSize: 0x14 }
  - { offsetInCU: 0x1DB79, offset: 0x1DB79, size: 0x8, addend: 0x0, symName: __ZNSt3__115__hash_iteratorIPNS_11__hash_nodeINS_17__hash_value_typeINS_12basic_stringIcNS_11char_traitsIcEENS_9allocatorIcEEEEiEEPvEEEC2B7v160006EPNS_16__hash_node_baseISC_EEPKv, symObjAddr: 0xC4F4, symBinAddr: 0x100010C00, symSize: 0x24 }
  - { offsetInCU: 0x1DBC1, offset: 0x1DBC1, size: 0x8, addend: 0x0, symName: __ZNSt3__119__hash_map_iteratorINS_15__hash_iteratorIPNS_11__hash_nodeINS_17__hash_value_typeINS_12basic_stringIcNS_11char_traitsIcEENS_9allocatorIcEEEEiEEPvEEEEEC2B7v160006ESE_, symObjAddr: 0xC518, symBinAddr: 0x100010C24, symSize: 0x20 }
  - { offsetInCU: 0x1DBFA, offset: 0x1DBFA, size: 0x8, addend: 0x0, symName: __ZNSt3__114pointer_traitsIPNS_4pairIKNS_12basic_stringIcNS_11char_traitsIcEENS_9allocatorIcEEEEiEEE10pointer_toB7v160006ERS9_, symObjAddr: 0xC59C, symBinAddr: 0x100010CA8, symSize: 0x14 }
  - { offsetInCU: 0x1DC1D, offset: 0x1DC1D, size: 0x8, addend: 0x0, symName: __ZNKSt3__115__hash_iteratorIPNS_11__hash_nodeINS_17__hash_value_typeINS_12basic_stringIcNS_11char_traitsIcEENS_9allocatorIcEEEEiEEPvEEEptB7v160006Ev, symObjAddr: 0xC5B0, symBinAddr: 0x100010CBC, symSize: 0x30 }
  - { offsetInCU: 0x1DC43, offset: 0x1DC43, size: 0x8, addend: 0x0, symName: __ZNSt3__114pointer_traitsIPNS_17__hash_value_typeINS_12basic_stringIcNS_11char_traitsIcEENS_9allocatorIcEEEEiEEE10pointer_toB7v160006ERS8_, symObjAddr: 0xC5E0, symBinAddr: 0x100010CEC, symSize: 0x14 }
  - { offsetInCU: 0x1DC66, offset: 0x1DC66, size: 0x8, addend: 0x0, symName: __ZNSt3__116allocator_traitsINS_9allocatorINS_11__hash_nodeINS_17__hash_value_typeINS_12basic_stringIcNS_11char_traitsIcEENS1_IcEEEEiEEPvEEEEE8allocateB7v160006ERSC_m, symObjAddr: 0xC5F4, symBinAddr: 0x100010D00, symSize: 0x2C }
  - { offsetInCU: 0x1DC99, offset: 0x1DC99, size: 0x8, addend: 0x0, symName: __ZNSt3__126__hash_map_node_destructorINS_9allocatorINS_11__hash_nodeINS_17__hash_value_typeINS_12basic_stringIcNS_11char_traitsIcEENS1_IcEEEEiEEPvEEEEEC1B7v160006ERSC_, symObjAddr: 0xC620, symBinAddr: 0x100010D2C, symSize: 0x34 }
  - { offsetInCU: 0x1DCD8, offset: 0x1DCD8, size: 0x8, addend: 0x0, symName: __ZNSt3__110unique_ptrINS_11__hash_nodeINS_17__hash_value_typeINS_12basic_stringIcNS_11char_traitsIcEENS_9allocatorIcEEEEiEEPvEENS_26__hash_map_node_destructorINS6_ISB_EEEEEC1B7v160006ILb1EvEEPSB_NS_16__dependent_typeINS_27__unique_ptr_deleter_sfinaeISE_EEXT_EE20__good_rval_ref_typeE, symObjAddr: 0xC654, symBinAddr: 0x100010D60, symSize: 0x3C }
  - { offsetInCU: 0x1DD2E, offset: 0x1DD2E, size: 0x8, addend: 0x0, symName: __ZNSt3__116allocator_traitsINS_9allocatorINS_11__hash_nodeINS_17__hash_value_typeINS_12basic_stringIcNS_11char_traitsIcEENS1_IcEEEEiEEPvEEEEE9constructB7v160006IKS8_JRSF_EvEEvRSC_PT_DpOT0_, symObjAddr: 0xC690, symBinAddr: 0x100010D9C, symSize: 0x34 }
  - { offsetInCU: 0x1DD85, offset: 0x1DD85, size: 0x8, addend: 0x0, symName: __ZNKSt3__110unique_ptrINS_11__hash_nodeINS_17__hash_value_typeINS_12basic_stringIcNS_11char_traitsIcEENS_9allocatorIcEEEEiEEPvEENS_26__hash_map_node_destructorINS6_ISB_EEEEEptB7v160006Ev, symObjAddr: 0xC6C4, symBinAddr: 0x100010DD0, symSize: 0x28 }
  - { offsetInCU: 0x1DDAB, offset: 0x1DDAB, size: 0x8, addend: 0x0, symName: __ZNSt3__110unique_ptrINS_11__hash_nodeINS_17__hash_value_typeINS_12basic_stringIcNS_11char_traitsIcEENS_9allocatorIcEEEEiEEPvEENS_26__hash_map_node_destructorINS6_ISB_EEEEE11get_deleterB7v160006Ev, symObjAddr: 0xC6EC, symBinAddr: 0x100010DF8, symSize: 0x24 }
  - { offsetInCU: 0x1DDD1, offset: 0x1DDD1, size: 0x8, addend: 0x0, symName: __ZNSt3__116allocator_traitsINS_9allocatorINS_11__hash_nodeINS_17__hash_value_typeINS_12basic_stringIcNS_11char_traitsIcEENS1_IcEEEEiEEPvEEEEE9constructB7v160006IiJEvEEvRSC_PT_DpOT0_, symObjAddr: 0xC710, symBinAddr: 0x100010E1C, symSize: 0x2C }
  - { offsetInCU: 0x1DE13, offset: 0x1DE13, size: 0x8, addend: 0x0, symName: __ZNSt3__19allocatorINS_11__hash_nodeINS_17__hash_value_typeINS_12basic_stringIcNS_11char_traitsIcEENS0_IcEEEEiEEPvEEE8allocateB7v160006Em, symObjAddr: 0xC73C, symBinAddr: 0x100010E48, symSize: 0x8C }
  - { offsetInCU: 0x1DE51, offset: 0x1DE51, size: 0x8, addend: 0x0, symName: __ZNSt3__116allocator_traitsINS_9allocatorINS_11__hash_nodeINS_17__hash_value_typeINS_12basic_stringIcNS_11char_traitsIcEENS1_IcEEEEiEEPvEEEEE8max_sizeB7v160006ISC_vEEmRKSC_, symObjAddr: 0xC7C8, symBinAddr: 0x100010ED4, symSize: 0x24 }
  - { offsetInCU: 0x1DE7F, offset: 0x1DE7F, size: 0x8, addend: 0x0, symName: __ZNKSt3__19allocatorINS_11__hash_nodeINS_17__hash_value_typeINS_12basic_stringIcNS_11char_traitsIcEENS0_IcEEEEiEEPvEEE8max_sizeB7v160006Ev, symObjAddr: 0xC7EC, symBinAddr: 0x100010EF8, symSize: 0x18 }
  - { offsetInCU: 0x1DEA5, offset: 0x1DEA5, size: 0x8, addend: 0x0, symName: __ZNSt3__126__hash_map_node_destructorINS_9allocatorINS_11__hash_nodeINS_17__hash_value_typeINS_12basic_stringIcNS_11char_traitsIcEENS1_IcEEEEiEEPvEEEEEC2B7v160006ERSC_, symObjAddr: 0xC804, symBinAddr: 0x100010F10, symSize: 0x28 }
  - { offsetInCU: 0x1DEDE, offset: 0x1DEDE, size: 0x8, addend: 0x0, symName: __ZNSt3__110unique_ptrINS_11__hash_nodeINS_17__hash_value_typeINS_12basic_stringIcNS_11char_traitsIcEENS_9allocatorIcEEEEiEEPvEENS_26__hash_map_node_destructorINS6_ISB_EEEEEC2B7v160006ILb1EvEEPSB_NS_16__dependent_typeINS_27__unique_ptr_deleter_sfinaeISE_EEXT_EE20__good_rval_ref_typeE, symObjAddr: 0xC82C, symBinAddr: 0x100010F38, symSize: 0x5C }
  - { offsetInCU: 0x1DF2F, offset: 0x1DF2F, size: 0x8, addend: 0x0, symName: __ZNSt3__117__compressed_pairIPNS_11__hash_nodeINS_17__hash_value_typeINS_12basic_stringIcNS_11char_traitsIcEENS_9allocatorIcEEEEiEEPvEENS_26__hash_map_node_destructorINS6_ISB_EEEEEC1B7v160006IRSC_SF_EEOT_OT0_, symObjAddr: 0xC888, symBinAddr: 0x100010F94, symSize: 0x3C }
  - { offsetInCU: 0x1DF87, offset: 0x1DF87, size: 0x8, addend: 0x0, symName: __ZNSt3__117__compressed_pairIPNS_11__hash_nodeINS_17__hash_value_typeINS_12basic_stringIcNS_11char_traitsIcEENS_9allocatorIcEEEEiEEPvEENS_26__hash_map_node_destructorINS6_ISB_EEEEEC2B7v160006IRSC_SF_EEOT_OT0_, symObjAddr: 0xC8C4, symBinAddr: 0x100010FD0, symSize: 0x48 }
  - { offsetInCU: 0x1DFDF, offset: 0x1DFDF, size: 0x8, addend: 0x0, symName: __ZNSt3__122__compressed_pair_elemIPNS_11__hash_nodeINS_17__hash_value_typeINS_12basic_stringIcNS_11char_traitsIcEENS_9allocatorIcEEEEiEEPvEELi0ELb0EEC2B7v160006IRSC_vEEOT_, symObjAddr: 0xC90C, symBinAddr: 0x100011018, symSize: 0x24 }
  - { offsetInCU: 0x1E021, offset: 0x1E021, size: 0x8, addend: 0x0, symName: __ZNSt3__122__compressed_pair_elemINS_26__hash_map_node_destructorINS_9allocatorINS_11__hash_nodeINS_17__hash_value_typeINS_12basic_stringIcNS_11char_traitsIcEENS2_IcEEEEiEEPvEEEEEELi1ELb0EEC2B7v160006ISE_vEEOT_, symObjAddr: 0xC930, symBinAddr: 0x10001103C, symSize: 0x24 }
  - { offsetInCU: 0x1E063, offset: 0x1E063, size: 0x8, addend: 0x0, symName: __ZNSt3__19allocatorINS_11__hash_nodeINS_17__hash_value_typeINS_12basic_stringIcNS_11char_traitsIcEENS0_IcEEEEiEEPvEEE9constructB7v160006IKS7_JRSD_EEEvPT_DpOT0_, symObjAddr: 0xC954, symBinAddr: 0x100011060, symSize: 0x30 }
  - { offsetInCU: 0x1E0B9, offset: 0x1E0B9, size: 0x8, addend: 0x0, symName: __ZNKSt3__117__compressed_pairIPNS_11__hash_nodeINS_17__hash_value_typeINS_12basic_stringIcNS_11char_traitsIcEENS_9allocatorIcEEEEiEEPvEENS_26__hash_map_node_destructorINS6_ISB_EEEEE5firstB7v160006Ev, symObjAddr: 0xC984, symBinAddr: 0x100011090, symSize: 0x24 }
  - { offsetInCU: 0x1E0DF, offset: 0x1E0DF, size: 0x8, addend: 0x0, symName: __ZNKSt3__122__compressed_pair_elemIPNS_11__hash_nodeINS_17__hash_value_typeINS_12basic_stringIcNS_11char_traitsIcEENS_9allocatorIcEEEEiEEPvEELi0ELb0EE5__getB7v160006Ev, symObjAddr: 0xC9A8, symBinAddr: 0x1000110B4, symSize: 0x14 }
  - { offsetInCU: 0x1E105, offset: 0x1E105, size: 0x8, addend: 0x0, symName: __ZNSt3__117__compressed_pairIPNS_11__hash_nodeINS_17__hash_value_typeINS_12basic_stringIcNS_11char_traitsIcEENS_9allocatorIcEEEEiEEPvEENS_26__hash_map_node_destructorINS6_ISB_EEEEE6secondB7v160006Ev, symObjAddr: 0xC9BC, symBinAddr: 0x1000110C8, symSize: 0x28 }
  - { offsetInCU: 0x1E12B, offset: 0x1E12B, size: 0x8, addend: 0x0, symName: __ZNSt3__122__compressed_pair_elemINS_26__hash_map_node_destructorINS_9allocatorINS_11__hash_nodeINS_17__hash_value_typeINS_12basic_stringIcNS_11char_traitsIcEENS2_IcEEEEiEEPvEEEEEELi1ELb0EE5__getB7v160006Ev, symObjAddr: 0xC9E4, symBinAddr: 0x1000110F0, symSize: 0x14 }
  - { offsetInCU: 0x1E151, offset: 0x1E151, size: 0x8, addend: 0x0, symName: __ZNSt3__19allocatorINS_11__hash_nodeINS_17__hash_value_typeINS_12basic_stringIcNS_11char_traitsIcEENS0_IcEEEEiEEPvEEE9constructB7v160006IiJEEEvPT_DpOT0_, symObjAddr: 0xC9F8, symBinAddr: 0x100011104, symSize: 0x1C }
  - { offsetInCU: 0x1E193, offset: 0x1E193, size: 0x8, addend: 0x0, symName: __ZNKSt3__122__unordered_map_hasherINS_12basic_stringIcNS_11char_traitsIcEENS_9allocatorIcEEEENS_17__hash_value_typeIS6_iEENS_4hashIS6_EENS_8equal_toIS6_EELb1EEclB7v160006ERKS8_, symObjAddr: 0xCA14, symBinAddr: 0x100011120, symSize: 0x3C }
  - { offsetInCU: 0x1E1C8, offset: 0x1E1C8, size: 0x8, addend: 0x0, symName: __ZNSt3__112__hash_tableINS_17__hash_value_typeINS_12basic_stringIcNS_11char_traitsIcEENS_9allocatorIcEEEEiEENS_22__unordered_map_hasherIS7_S8_NS_4hashIS7_EENS_8equal_toIS7_EELb1EEENS_21__unordered_map_equalIS7_S8_SD_SB_Lb1EEENS5_IS8_EEE28__node_insert_unique_prepareB7v160006EmRS8_, symObjAddr: 0xCA50, symBinAddr: 0x10001115C, symSize: 0x244 }
  - { offsetInCU: 0x1E24A, offset: 0x1E24A, size: 0x8, addend: 0x0, symName: __ZNSt3__112__hash_tableINS_17__hash_value_typeINS_12basic_stringIcNS_11char_traitsIcEENS_9allocatorIcEEEEiEENS_22__unordered_map_hasherIS7_S8_NS_4hashIS7_EENS_8equal_toIS7_EELb1EEENS_21__unordered_map_equalIS7_S8_SD_SB_Lb1EEENS5_IS8_EEE28__node_insert_unique_performB7v160006EPNS_11__hash_nodeIS8_PvEE, symObjAddr: 0xCC94, symBinAddr: 0x1000113A0, symSize: 0x154 }
  - { offsetInCU: 0x1E2AE, offset: 0x1E2AE, size: 0x8, addend: 0x0, symName: __ZNSt3__116__hash_node_baseIPNS_11__hash_nodeINS_17__hash_value_typeINS_12basic_stringIcNS_11char_traitsIcEENS_9allocatorIcEEEEiEEPvEEE5__ptrB7v160006Ev, symObjAddr: 0xCDE8, symBinAddr: 0x1000114F4, symSize: 0x24 }
  - { offsetInCU: 0x1E2D4, offset: 0x1E2D4, size: 0x8, addend: 0x0, symName: __ZNSt3__14pairINS_15__hash_iteratorIPNS_11__hash_nodeINS_17__hash_value_typeINS_12basic_stringIcNS_11char_traitsIcEENS_9allocatorIcEEEEiEEPvEEEEbEC1B7v160006ERKSE_RKb, symObjAddr: 0xCE0C, symBinAddr: 0x100011518, symSize: 0x3C }
  - { offsetInCU: 0x1E31A, offset: 0x1E31A, size: 0x8, addend: 0x0, symName: __ZNKSt3__121__unordered_map_equalINS_12basic_stringIcNS_11char_traitsIcEENS_9allocatorIcEEEENS_17__hash_value_typeIS6_iEENS_8equal_toIS6_EENS_4hashIS6_EELb1EEclB7v160006ERKS8_SF_, symObjAddr: 0xCE48, symBinAddr: 0x100011554, symSize: 0x54 }
  - { offsetInCU: 0x1E35E, offset: 0x1E35E, size: 0x8, addend: 0x0, symName: __ZNSt3__112__hash_tableINS_17__hash_value_typeINS_12basic_stringIcNS_11char_traitsIcEENS_9allocatorIcEEEEiEENS_22__unordered_map_hasherIS7_S8_NS_4hashIS7_EENS_8equal_toIS7_EELb1EEENS_21__unordered_map_equalIS7_S8_SD_SB_Lb1EEENS5_IS8_EEE4sizeB7v160006Ev, symObjAddr: 0xCE9C, symBinAddr: 0x1000115A8, symSize: 0x28 }
  - { offsetInCU: 0x1E384, offset: 0x1E384, size: 0x8, addend: 0x0, symName: __ZNSt3__112__hash_tableINS_17__hash_value_typeINS_12basic_stringIcNS_11char_traitsIcEENS_9allocatorIcEEEEiEENS_22__unordered_map_hasherIS7_S8_NS_4hashIS7_EENS_8equal_toIS7_EELb1EEENS_21__unordered_map_equalIS7_S8_SD_SB_Lb1EEENS5_IS8_EEE15max_load_factorB7v160006Ev, symObjAddr: 0xCEC4, symBinAddr: 0x1000115D0, symSize: 0x28 }
  - { offsetInCU: 0x1E3AA, offset: 0x1E3AA, size: 0x8, addend: 0x0, symName: __ZNSt3__112__hash_tableINS_17__hash_value_typeINS_12basic_stringIcNS_11char_traitsIcEENS_9allocatorIcEEEEiEENS_22__unordered_map_hasherIS7_S8_NS_4hashIS7_EENS_8equal_toIS7_EELb1EEENS_21__unordered_map_equalIS7_S8_SD_SB_Lb1EEENS5_IS8_EEE15__rehash_uniqueB7v160006Em, symObjAddr: 0xCEEC, symBinAddr: 0x1000115F8, symSize: 0x2C }
  - { offsetInCU: 0x1E3DE, offset: 0x1E3DE, size: 0x8, addend: 0x0, symName: __Z4ceilB7v160006f, symObjAddr: 0xCF68, symBinAddr: 0x100011674, symSize: 0x18 }
  - { offsetInCU: 0x1E40D, offset: 0x1E40D, size: 0x8, addend: 0x0, symName: __ZNSt3__117__compressed_pairImNS_22__unordered_map_hasherINS_12basic_stringIcNS_11char_traitsIcEENS_9allocatorIcEEEENS_17__hash_value_typeIS7_iEENS_4hashIS7_EENS_8equal_toIS7_EELb1EEEE5firstB7v160006Ev, symObjAddr: 0xCF80, symBinAddr: 0x10001168C, symSize: 0x24 }
  - { offsetInCU: 0x1E433, offset: 0x1E433, size: 0x8, addend: 0x0, symName: __ZNSt3__117__compressed_pairIfNS_21__unordered_map_equalINS_12basic_stringIcNS_11char_traitsIcEENS_9allocatorIcEEEENS_17__hash_value_typeIS7_iEENS_8equal_toIS7_EENS_4hashIS7_EELb1EEEE5firstB7v160006Ev, symObjAddr: 0xCFA4, symBinAddr: 0x1000116B0, symSize: 0x24 }
  - { offsetInCU: 0x1E459, offset: 0x1E459, size: 0x8, addend: 0x0, symName: __ZNSt3__122__compressed_pair_elemIfLi0ELb0EE5__getB7v160006Ev, symObjAddr: 0xCFC8, symBinAddr: 0x1000116D4, symSize: 0x14 }
  - { offsetInCU: 0x1E47F, offset: 0x1E47F, size: 0x8, addend: 0x0, symName: __ZNSt3__112__hash_tableINS_17__hash_value_typeINS_12basic_stringIcNS_11char_traitsIcEENS_9allocatorIcEEEEiEENS_22__unordered_map_hasherIS7_S8_NS_4hashIS7_EENS_8equal_toIS7_EELb1EEENS_21__unordered_map_equalIS7_S8_SD_SB_Lb1EEENS5_IS8_EEE8__rehashILb1EEEvm, symObjAddr: 0xCFDC, symBinAddr: 0x1000116E8, symSize: 0x1A8 }
  - { offsetInCU: 0x1E4CF, offset: 0x1E4CF, size: 0x8, addend: 0x0, symName: __ZNSt3__112__hash_tableINS_17__hash_value_typeINS_12basic_stringIcNS_11char_traitsIcEENS_9allocatorIcEEEEiEENS_22__unordered_map_hasherIS7_S8_NS_4hashIS7_EENS_8equal_toIS7_EELb1EEENS_21__unordered_map_equalIS7_S8_SD_SB_Lb1EEENS5_IS8_EEE11__do_rehashILb1EEEvm, symObjAddr: 0xD184, symBinAddr: 0x100011890, symSize: 0x290 }
  - { offsetInCU: 0x1E5B6, offset: 0x1E5B6, size: 0x8, addend: 0x0, symName: __ZNSt3__110unique_ptrIA_PNS_16__hash_node_baseIPNS_11__hash_nodeINS_17__hash_value_typeINS_12basic_stringIcNS_11char_traitsIcEENS_9allocatorIcEEEEiEEPvEEEENS_25__bucket_list_deallocatorINS7_ISF_EEEEE11get_deleterB7v160006Ev, symObjAddr: 0xD490, symBinAddr: 0x100011B9C, symSize: 0x24 }
  - { offsetInCU: 0x1E5DC, offset: 0x1E5DC, size: 0x8, addend: 0x0, symName: __ZNSt3__110unique_ptrIA_PNS_16__hash_node_baseIPNS_11__hash_nodeINS_17__hash_value_typeINS_12basic_stringIcNS_11char_traitsIcEENS_9allocatorIcEEEEiEEPvEEEENS_25__bucket_list_deallocatorINS7_ISF_EEEEE5resetB7v160006IPSF_EENS_9enable_ifIXsr28_CheckArrayPointerConversionIT_EE5valueEvE4typeESO_, symObjAddr: 0xD4B4, symBinAddr: 0x100011BC0, symSize: 0x78 }
  - { offsetInCU: 0x1E629, offset: 0x1E629, size: 0x8, addend: 0x0, symName: __ZNSt3__116allocator_traitsINS_9allocatorIPNS_16__hash_node_baseIPNS_11__hash_nodeINS_17__hash_value_typeINS_12basic_stringIcNS_11char_traitsIcEENS1_IcEEEEiEEPvEEEEEEE8allocateB7v160006ERSG_m, symObjAddr: 0xD52C, symBinAddr: 0x100011C38, symSize: 0x2C }
  - { offsetInCU: 0x1E65C, offset: 0x1E65C, size: 0x8, addend: 0x0, symName: __ZNSt3__19allocatorIPNS_16__hash_node_baseIPNS_11__hash_nodeINS_17__hash_value_typeINS_12basic_stringIcNS_11char_traitsIcEENS0_IcEEEEiEEPvEEEEE8allocateB7v160006Em, symObjAddr: 0xD558, symBinAddr: 0x100011C64, symSize: 0x84 }
  - { offsetInCU: 0x1E69A, offset: 0x1E69A, size: 0x8, addend: 0x0, symName: __ZNSt3__116allocator_traitsINS_9allocatorIPNS_16__hash_node_baseIPNS_11__hash_nodeINS_17__hash_value_typeINS_12basic_stringIcNS_11char_traitsIcEENS1_IcEEEEiEEPvEEEEEEE8max_sizeB7v160006ISG_vEEmRKSG_, symObjAddr: 0xD5DC, symBinAddr: 0x100011CE8, symSize: 0x24 }
  - { offsetInCU: 0x1E6C8, offset: 0x1E6C8, size: 0x8, addend: 0x0, symName: __ZNKSt3__19allocatorIPNS_16__hash_node_baseIPNS_11__hash_nodeINS_17__hash_value_typeINS_12basic_stringIcNS_11char_traitsIcEENS0_IcEEEEiEEPvEEEEE8max_sizeB7v160006Ev, symObjAddr: 0xD600, symBinAddr: 0x100011D0C, symSize: 0x14 }
  - { offsetInCU: 0x1E6EE, offset: 0x1E6EE, size: 0x8, addend: 0x0, symName: __ZNSt3__14pairINS_15__hash_iteratorIPNS_11__hash_nodeINS_17__hash_value_typeINS_12basic_stringIcNS_11char_traitsIcEENS_9allocatorIcEEEEiEEPvEEEEbEC2B7v160006ERKSE_RKb, symObjAddr: 0xD630, symBinAddr: 0x100011D3C, symSize: 0x38 }
  - { offsetInCU: 0x1E734, offset: 0x1E734, size: 0x8, addend: 0x0, symName: __ZNSt3__14pairINS_19__hash_map_iteratorINS_15__hash_iteratorIPNS_11__hash_nodeINS_17__hash_value_typeINS_12basic_stringIcNS_11char_traitsIcEENS_9allocatorIcEEEEiEEPvEEEEEEbEC2B7v160006ISF_bEERKNS0_IT_T0_EE, symObjAddr: 0xD668, symBinAddr: 0x100011D74, symSize: 0x50 }
  - { offsetInCU: 0x1E77E, offset: 0x1E77E, size: 0x8, addend: 0x0, symName: __ZNSt3__117__compressed_pairIPNS_11__hash_nodeINS_17__hash_value_typeINS_12basic_stringIcNS_11char_traitsIcEENS_9allocatorIcEEEEiEEPvEENS_26__hash_map_node_destructorINS6_ISB_EEEEE5firstB7v160006Ev, symObjAddr: 0xD6B8, symBinAddr: 0x100011DC4, symSize: 0x24 }
  - { offsetInCU: 0x1E7A4, offset: 0x1E7A4, size: 0x8, addend: 0x0, symName: __ZNSt3__122__compressed_pair_elemIPNS_11__hash_nodeINS_17__hash_value_typeINS_12basic_stringIcNS_11char_traitsIcEENS_9allocatorIcEEEEiEEPvEELi0ELb0EE5__getB7v160006Ev, symObjAddr: 0xD6DC, symBinAddr: 0x100011DE8, symSize: 0x14 }
  - { offsetInCU: 0x1E7CA, offset: 0x1E7CA, size: 0x8, addend: 0x0, symName: __ZNSt3__110unique_ptrINS_11__hash_nodeINS_17__hash_value_typeINS_12basic_stringIcNS_11char_traitsIcEENS_9allocatorIcEEEEiEEPvEENS_26__hash_map_node_destructorINS6_ISB_EEEEED2B7v160006Ev, symObjAddr: 0xD6F0, symBinAddr: 0x100011DFC, symSize: 0x30 }
  - { offsetInCU: 0x1E7F4, offset: 0x1E7F4, size: 0x8, addend: 0x0, symName: __ZNSt3__110unique_ptrINS_11__hash_nodeINS_17__hash_value_typeINS_12basic_stringIcNS_11char_traitsIcEENS_9allocatorIcEEEEiEEPvEENS_26__hash_map_node_destructorINS6_ISB_EEEEE5resetB7v160006EPSB_, symObjAddr: 0xD720, symBinAddr: 0x100011E2C, symSize: 0x78 }
  - { offsetInCU: 0x1E838, offset: 0x1E838, size: 0x8, addend: 0x0, symName: __ZNSt3__126__hash_map_node_destructorINS_9allocatorINS_11__hash_nodeINS_17__hash_value_typeINS_12basic_stringIcNS_11char_traitsIcEENS1_IcEEEEiEEPvEEEEEclB7v160006EPSB_, symObjAddr: 0xD798, symBinAddr: 0x100011EA4, symSize: 0xE4 }
  - { offsetInCU: 0x1E86D, offset: 0x1E86D, size: 0x8, addend: 0x0, symName: __ZNSt3__116allocator_traitsINS_9allocatorINS_11__hash_nodeINS_17__hash_value_typeINS_12basic_stringIcNS_11char_traitsIcEENS1_IcEEEEiEEPvEEEEE7destroyB7v160006IivvEEvRSC_PT_, symObjAddr: 0xD87C, symBinAddr: 0x100011F88, symSize: 0x14 }
  - { offsetInCU: 0x1E8A7, offset: 0x1E8A7, size: 0x8, addend: 0x0, symName: __ZNSt3__116allocator_traitsINS_9allocatorINS_11__hash_nodeINS_17__hash_value_typeINS_12basic_stringIcNS_11char_traitsIcEENS1_IcEEEEiEEPvEEEEE7destroyB7v160006IKS8_vvEEvRSC_PT_, symObjAddr: 0xD890, symBinAddr: 0x100011F9C, symSize: 0x28 }
  - { offsetInCU: 0x1E8E1, offset: 0x1E8E1, size: 0x8, addend: 0x0, symName: __ZNSt3__16vectorIjNS_9allocatorIjEEE9__end_capB7v160006Ev, symObjAddr: 0xD8B8, symBinAddr: 0x100011FC4, symSize: 0x28 }
  - { offsetInCU: 0x1E90D, offset: 0x1E90D, size: 0x8, addend: 0x0, symName: __ZNSt3__16vectorIjNS_9allocatorIjEEE22__construct_one_at_endB7v160006IJjEEEvDpOT_, symObjAddr: 0xD8E0, symBinAddr: 0x100011FEC, symSize: 0x98 }
  - { offsetInCU: 0x1E95C, offset: 0x1E95C, size: 0x8, addend: 0x0, symName: __ZNSt3__16vectorIjNS_9allocatorIjEEE21__push_back_slow_pathIjEEvOT_, symObjAddr: 0xD978, symBinAddr: 0x100012084, symSize: 0xE0 }
  - { offsetInCU: 0x1E9BA, offset: 0x1E9BA, size: 0x8, addend: 0x0, symName: __ZNSt3__117__compressed_pairIPjNS_9allocatorIjEEE5firstB7v160006Ev, symObjAddr: 0xDA58, symBinAddr: 0x100012164, symSize: 0x24 }
  - { offsetInCU: 0x1E9E0, offset: 0x1E9E0, size: 0x8, addend: 0x0, symName: __ZNSt3__122__compressed_pair_elemIPjLi0ELb0EE5__getB7v160006Ev, symObjAddr: 0xDA7C, symBinAddr: 0x100012188, symSize: 0x14 }
  - { offsetInCU: 0x1EA1F, offset: 0x1EA1F, size: 0x8, addend: 0x0, symName: __ZNSt3__16vectorIjNS_9allocatorIjEEE21_ConstructTransactionC1B7v160006ERS3_m, symObjAddr: 0xDA90, symBinAddr: 0x10001219C, symSize: 0x3C }
  - { offsetInCU: 0x1EA67, offset: 0x1EA67, size: 0x8, addend: 0x0, symName: __ZNSt3__116allocator_traitsINS_9allocatorIjEEE9constructB7v160006IjJjEvEEvRS2_PT_DpOT0_, symObjAddr: 0xDACC, symBinAddr: 0x1000121D8, symSize: 0x34 }
  - { offsetInCU: 0x1EABE, offset: 0x1EABE, size: 0x8, addend: 0x0, symName: __ZNSt3__16vectorIjNS_9allocatorIjEEE21_ConstructTransactionD1B7v160006Ev, symObjAddr: 0xDB00, symBinAddr: 0x10001220C, symSize: 0x2C }
  - { offsetInCU: 0x1EAE8, offset: 0x1EAE8, size: 0x8, addend: 0x0, symName: __ZNSt3__16vectorIjNS_9allocatorIjEEE21_ConstructTransactionC2B7v160006ERS3_m, symObjAddr: 0xDB2C, symBinAddr: 0x100012238, symSize: 0x44 }
  - { offsetInCU: 0x1EB30, offset: 0x1EB30, size: 0x8, addend: 0x0, symName: __ZNSt3__19allocatorIjE9constructB7v160006IjJjEEEvPT_DpOT0_, symObjAddr: 0xDB70, symBinAddr: 0x10001227C, symSize: 0x28 }
  - { offsetInCU: 0x1EB86, offset: 0x1EB86, size: 0x8, addend: 0x0, symName: __ZNSt3__16vectorIjNS_9allocatorIjEEE21_ConstructTransactionD2B7v160006Ev, symObjAddr: 0xDB98, symBinAddr: 0x1000122A4, symSize: 0x20 }
  - { offsetInCU: 0x1EBB0, offset: 0x1EBB0, size: 0x8, addend: 0x0, symName: __ZNKSt3__16vectorIjNS_9allocatorIjEEE11__recommendB7v160006Em, symObjAddr: 0xDBB8, symBinAddr: 0x1000122C4, symSize: 0xB4 }
  - { offsetInCU: 0x1EC05, offset: 0x1EC05, size: 0x8, addend: 0x0, symName: __ZNSt3__114__split_bufferIjRNS_9allocatorIjEEEC1EmmS3_, symObjAddr: 0xDC6C, symBinAddr: 0x100012378, symSize: 0x44 }
  - { offsetInCU: 0x1EC5B, offset: 0x1EC5B, size: 0x8, addend: 0x0, symName: __ZNSt3__114__split_bufferIjRNS_9allocatorIjEEED1Ev, symObjAddr: 0xDDC8, symBinAddr: 0x1000124D4, symSize: 0x2C }
  - { offsetInCU: 0x1EC87, offset: 0x1EC87, size: 0x8, addend: 0x0, symName: __ZNKSt3__16vectorIjNS_9allocatorIjEEE8max_sizeEv, symObjAddr: 0xDDF4, symBinAddr: 0x100012500, symSize: 0x74 }
  - { offsetInCU: 0x1ECAF, offset: 0x1ECAF, size: 0x8, addend: 0x0, symName: __ZNKSt3__16vectorIjNS_9allocatorIjEEE20__throw_length_errorB7v160006Ev, symObjAddr: 0xDE68, symBinAddr: 0x100012574, symSize: 0x1C }
  - { offsetInCU: 0x1ECDF, offset: 0x1ECDF, size: 0x8, addend: 0x0, symName: __ZNSt3__116allocator_traitsINS_9allocatorIjEEE8max_sizeB7v160006IS2_vEEmRKS2_, symObjAddr: 0xDE84, symBinAddr: 0x100012590, symSize: 0x24 }
  - { offsetInCU: 0x1ED0D, offset: 0x1ED0D, size: 0x8, addend: 0x0, symName: __ZNKSt3__16vectorIjNS_9allocatorIjEEE7__allocB7v160006Ev, symObjAddr: 0xDEA8, symBinAddr: 0x1000125B4, symSize: 0x28 }
  - { offsetInCU: 0x1ED33, offset: 0x1ED33, size: 0x8, addend: 0x0, symName: __ZNKSt3__19allocatorIjE8max_sizeB7v160006Ev, symObjAddr: 0xDED0, symBinAddr: 0x1000125DC, symSize: 0x14 }
  - { offsetInCU: 0x1ED59, offset: 0x1ED59, size: 0x8, addend: 0x0, symName: __ZNKSt3__117__compressed_pairIPjNS_9allocatorIjEEE6secondB7v160006Ev, symObjAddr: 0xDEE4, symBinAddr: 0x1000125F0, symSize: 0x24 }
  - { offsetInCU: 0x1ED7F, offset: 0x1ED7F, size: 0x8, addend: 0x0, symName: __ZNKSt3__122__compressed_pair_elemINS_9allocatorIjEELi1ELb1EE5__getB7v160006Ev, symObjAddr: 0xDF08, symBinAddr: 0x100012614, symSize: 0x14 }
  - { offsetInCU: 0x1EDA5, offset: 0x1EDA5, size: 0x8, addend: 0x0, symName: __ZNSt3__114__split_bufferIjRNS_9allocatorIjEEEC2EmmS3_, symObjAddr: 0xDF1C, symBinAddr: 0x100012628, symSize: 0xD4 }
  - { offsetInCU: 0x1EE19, offset: 0x1EE19, size: 0x8, addend: 0x0, symName: __ZNSt3__117__compressed_pairIPjRNS_9allocatorIjEEEC1B7v160006IDnS4_EEOT_OT0_, symObjAddr: 0xDFF0, symBinAddr: 0x1000126FC, symSize: 0x3C }
  - { offsetInCU: 0x1EE71, offset: 0x1EE71, size: 0x8, addend: 0x0, symName: __ZNSt3__114__split_bufferIjRNS_9allocatorIjEEE7__allocB7v160006Ev, symObjAddr: 0xE06C, symBinAddr: 0x100012778, symSize: 0x28 }
  - { offsetInCU: 0x1EE97, offset: 0x1EE97, size: 0x8, addend: 0x0, symName: __ZNSt3__114__split_bufferIjRNS_9allocatorIjEEE9__end_capB7v160006Ev, symObjAddr: 0xE094, symBinAddr: 0x1000127A0, symSize: 0x28 }
  - { offsetInCU: 0x1EEBD, offset: 0x1EEBD, size: 0x8, addend: 0x0, symName: __ZNSt3__117__compressed_pairIPjRNS_9allocatorIjEEEC2B7v160006IDnS4_EEOT_OT0_, symObjAddr: 0xE0BC, symBinAddr: 0x1000127C8, symSize: 0x48 }
  - { offsetInCU: 0x1EF15, offset: 0x1EF15, size: 0x8, addend: 0x0, symName: __ZNSt3__122__compressed_pair_elemIRNS_9allocatorIjEELi1ELb0EEC2B7v160006IS3_vEEOT_, symObjAddr: 0xE104, symBinAddr: 0x100012810, symSize: 0x20 }
  - { offsetInCU: 0x1EF57, offset: 0x1EF57, size: 0x8, addend: 0x0, symName: __ZNSt3__19allocatorIjE8allocateB7v160006Em, symObjAddr: 0xE124, symBinAddr: 0x100012830, symSize: 0x84 }
  - { offsetInCU: 0x1EF8B, offset: 0x1EF8B, size: 0x8, addend: 0x0, symName: __ZNSt3__117__compressed_pairIPjRNS_9allocatorIjEEE6secondB7v160006Ev, symObjAddr: 0xE1A8, symBinAddr: 0x1000128B4, symSize: 0x28 }
  - { offsetInCU: 0x1EFB1, offset: 0x1EFB1, size: 0x8, addend: 0x0, symName: __ZNSt3__122__compressed_pair_elemIRNS_9allocatorIjEELi1ELb0EE5__getB7v160006Ev, symObjAddr: 0xE1D0, symBinAddr: 0x1000128DC, symSize: 0x18 }
  - { offsetInCU: 0x1EFD7, offset: 0x1EFD7, size: 0x8, addend: 0x0, symName: __ZNSt3__117__compressed_pairIPjRNS_9allocatorIjEEE5firstB7v160006Ev, symObjAddr: 0xE1E8, symBinAddr: 0x1000128F4, symSize: 0x24 }
  - { offsetInCU: 0x1EFFD, offset: 0x1EFFD, size: 0x8, addend: 0x0, symName: __ZNSt3__116reverse_iteratorIPjEC1B7v160006ES1_, symObjAddr: 0xE2F4, symBinAddr: 0x100012A00, symSize: 0x34 }
  - { offsetInCU: 0x1F035, offset: 0x1F035, size: 0x8, addend: 0x0, symName: __ZNKSt3__116reverse_iteratorIPjE4baseB7v160006Ev, symObjAddr: 0xE328, symBinAddr: 0x100012A34, symSize: 0x18 }
  - { offsetInCU: 0x1F05B, offset: 0x1F05B, size: 0x8, addend: 0x0, symName: __ZNKSt3__16vectorIjNS_9allocatorIjEEE14__annotate_newB7v160006Em, symObjAddr: 0xE37C, symBinAddr: 0x100012A88, symSize: 0xAC }
  - { offsetInCU: 0x1F090, offset: 0x1F090, size: 0x8, addend: 0x0, symName: __ZNKSt3__116reverse_iteratorIPjEdeB7v160006Ev, symObjAddr: 0xE4D0, symBinAddr: 0x100012BDC, symSize: 0x28 }
  - { offsetInCU: 0x1F0C4, offset: 0x1F0C4, size: 0x8, addend: 0x0, symName: __ZNSt3__116reverse_iteratorIPjEppB7v160006Ev, symObjAddr: 0xE4F8, symBinAddr: 0x100012C04, symSize: 0x20 }
  - { offsetInCU: 0x1F0EF, offset: 0x1F0EF, size: 0x8, addend: 0x0, symName: __ZNSt3__119__to_address_helperINS_16reverse_iteratorIPjEEvE6__callB7v160006ERKS3_, symObjAddr: 0xE590, symBinAddr: 0x100012C9C, symSize: 0x4C }
  - { offsetInCU: 0x1F112, offset: 0x1F112, size: 0x8, addend: 0x0, symName: __ZNKSt3__116reverse_iteratorIPjEptB7v160006Ev, symObjAddr: 0xE5DC, symBinAddr: 0x100012CE8, symSize: 0x24 }
  - { offsetInCU: 0x1F152, offset: 0x1F152, size: 0x8, addend: 0x0, symName: __ZNKSt3__111__move_loopINS_17_ClassicAlgPolicyEEclB7v160006INS_16reverse_iteratorIPjEES6_S6_EENS_4pairIT_T1_EES8_T0_S9_, symObjAddr: 0xE890, symBinAddr: 0x100012F9C, symSize: 0xA0 }
  - { offsetInCU: 0x1F1BD, offset: 0x1F1BD, size: 0x8, addend: 0x0, symName: __ZNSt3__18_IterOpsINS_17_ClassicAlgPolicyEE11__iter_moveB7v160006IRNS_16reverse_iteratorIPjEEEENS_9enable_ifIXsr12is_referenceIDTdeclsr3stdE7declvalIRT_EEEEE5valueEDTclsr3stdE4movedeclsr3stdE7declvalISA_EEEEE4typeEOS9_, symObjAddr: 0xEA90, symBinAddr: 0x10001319C, symSize: 0x28 }
  - { offsetInCU: 0x1F1E9, offset: 0x1F1E9, size: 0x8, addend: 0x0, symName: __ZNSt3__18_IterOpsINS_17_ClassicAlgPolicyEE25__validate_iter_referenceB7v160006IRNS_16reverse_iteratorIPjEEEEvv, symObjAddr: 0xEAB8, symBinAddr: 0x1000131C4, symSize: 0x4 }
  - { offsetInCU: 0x1F207, offset: 0x1F207, size: 0x8, addend: 0x0, symName: __ZNSt3__118__unwrap_iter_implINS_16reverse_iteratorIPjEELb0EE8__unwrapB7v160006ES3_, symObjAddr: 0xEABC, symBinAddr: 0x1000131C8, symSize: 0x24 }
  - { offsetInCU: 0x1F22A, offset: 0x1F22A, size: 0x8, addend: 0x0, symName: __ZNSt3__14pairINS_16reverse_iteratorIPjEES3_EC1B7v160006ERKS3_S6_, symObjAddr: 0xEAE0, symBinAddr: 0x1000131EC, symSize: 0x3C }
  - { offsetInCU: 0x1F270, offset: 0x1F270, size: 0x8, addend: 0x0, symName: __ZNSt3__14pairINS_16reverse_iteratorIPjEES3_EC2B7v160006ERKS3_S6_, symObjAddr: 0xEB1C, symBinAddr: 0x100013228, symSize: 0x34 }
  - { offsetInCU: 0x1F2B6, offset: 0x1F2B6, size: 0x8, addend: 0x0, symName: __ZNSt3__118__unwrap_iter_implINS_16reverse_iteratorIPjEELb0EE8__rewrapB7v160006ES3_S3_, symObjAddr: 0xEB50, symBinAddr: 0x10001325C, symSize: 0x2C }
  - { offsetInCU: 0x1F2E4, offset: 0x1F2E4, size: 0x8, addend: 0x0, symName: __ZNSt3__116reverse_iteratorIPjEC2B7v160006ES1_, symObjAddr: 0xEB7C, symBinAddr: 0x100013288, symSize: 0x28 }
  - { offsetInCU: 0x1F31C, offset: 0x1F31C, size: 0x8, addend: 0x0, symName: __ZNSt3__114__split_bufferIjRNS_9allocatorIjEEED2Ev, symObjAddr: 0xEBA4, symBinAddr: 0x1000132B0, symSize: 0x80 }
  - { offsetInCU: 0x1F348, offset: 0x1F348, size: 0x8, addend: 0x0, symName: __ZNSt3__114__split_bufferIjRNS_9allocatorIjEEE5clearB7v160006Ev, symObjAddr: 0xEC24, symBinAddr: 0x100013330, symSize: 0x28 }
  - { offsetInCU: 0x1F36E, offset: 0x1F36E, size: 0x8, addend: 0x0, symName: __ZNKSt3__114__split_bufferIjRNS_9allocatorIjEEE8capacityB7v160006Ev, symObjAddr: 0xEC4C, symBinAddr: 0x100013358, symSize: 0x40 }
  - { offsetInCU: 0x1F394, offset: 0x1F394, size: 0x8, addend: 0x0, symName: __ZNSt3__114__split_bufferIjRNS_9allocatorIjEEE17__destruct_at_endB7v160006EPj, symObjAddr: 0xEC8C, symBinAddr: 0x100013398, symSize: 0x2C }
  - { offsetInCU: 0x1F3C8, offset: 0x1F3C8, size: 0x8, addend: 0x0, symName: __ZNSt3__114__split_bufferIjRNS_9allocatorIjEEE17__destruct_at_endB7v160006EPjNS_17integral_constantIbLb0EEE, symObjAddr: 0xECB8, symBinAddr: 0x1000133C4, symSize: 0x94 }
  - { offsetInCU: 0x1F409, offset: 0x1F409, size: 0x8, addend: 0x0, symName: __ZNKSt3__114__split_bufferIjRNS_9allocatorIjEEE9__end_capB7v160006Ev, symObjAddr: 0xED4C, symBinAddr: 0x100013458, symSize: 0x28 }
  - { offsetInCU: 0x1F42F, offset: 0x1F42F, size: 0x8, addend: 0x0, symName: __ZNKSt3__117__compressed_pairIPjRNS_9allocatorIjEEE5firstB7v160006Ev, symObjAddr: 0xED74, symBinAddr: 0x100013480, symSize: 0x24 }
  - { offsetInCU: 0x300E, offset: 0x2277F, size: 0x8, addend: 0x0, symName: __ZNSt3__16copy_nB7v160006IPKcmPcEENS_9enable_ifIXsr33__is_cpp17_random_access_iteratorIT_EE5valueET1_E4typeES5_T0_S6_, symObjAddr: 0x24B4, symBinAddr: 0x10001429C, symSize: 0x44 }
  - { offsetInCU: 0x461B, offset: 0x23D8C, size: 0x8, addend: 0x0, symName: __ZNSt3__1plB7v160006IcNS_11char_traitsIcEENS_9allocatorIcEEEENS_12basic_stringIT_T0_T1_EERKS9_PKS6_, symObjAddr: 0x90C, symBinAddr: 0x100013B50, symSize: 0x11C }
  - { offsetInCU: 0x46C7, offset: 0x23E38, size: 0x8, addend: 0x0, symName: __ZNSt3__112__to_addressB7v160006IcEEPT_S2_, symObjAddr: 0x207C, symBinAddr: 0x100013F48, symSize: 0x14 }
  - { offsetInCU: 0x46FC, offset: 0x23E6D, size: 0x8, addend: 0x0, symName: __ZNSt3__14copyB7v160006IPKcPcEET0_T_S5_S4_, symObjAddr: 0x24F8, symBinAddr: 0x1000142E0, symSize: 0x40 }
  - { offsetInCU: 0x4756, offset: 0x23EC7, size: 0x8, addend: 0x0, symName: __ZNSt3__16__copyB7v160006INS_17_ClassicAlgPolicyEPKcS3_PcEENS_4pairIT0_T2_EES6_T1_S7_, symObjAddr: 0x2538, symBinAddr: 0x100014320, symSize: 0x44 }
  - { offsetInCU: 0x47C2, offset: 0x23F33, size: 0x8, addend: 0x0, symName: __ZNSt3__123__dispatch_copy_or_moveB7v160006INS_17_ClassicAlgPolicyENS_11__copy_loopIS1_EENS_14__copy_trivialEPKcS6_PcEENS_4pairIT2_T4_EES9_T3_SA_, symObjAddr: 0x257C, symBinAddr: 0x100014364, symSize: 0x54 }
  - { offsetInCU: 0x4840, offset: 0x23FB1, size: 0x8, addend: 0x0, symName: __ZNSt3__121__unwrap_and_dispatchB7v160006INS_10__overloadINS_11__copy_loopINS_17_ClassicAlgPolicyEEENS_14__copy_trivialEEEPKcS8_PcLi0EEENS_4pairIT0_T2_EESB_T1_SC_, symObjAddr: 0x25D0, symBinAddr: 0x1000143B8, symSize: 0xB4 }
  - { offsetInCU: 0x48CE, offset: 0x2403F, size: 0x8, addend: 0x0, symName: __ZNSt3__114__unwrap_rangeB7v160006IPKcS2_EENS_4pairIT0_S4_EET_S6_, symObjAddr: 0x2684, symBinAddr: 0x10001446C, symSize: 0x60 }
  - { offsetInCU: 0x4A0D, offset: 0x2417E, size: 0x8, addend: 0x0, symName: __ZNSt3__113__unwrap_iterB7v160006IPcNS_18__unwrap_iter_implIS1_Lb1EEELi0EEEDTclsrT0_8__unwrapclsr3stdE7declvalIT_EEEES5_, symObjAddr: 0x272C, symBinAddr: 0x100014514, symSize: 0x24 }
  - { offsetInCU: 0x4A51, offset: 0x241C2, size: 0x8, addend: 0x0, symName: __ZNSt3__19make_pairB7v160006IPKcPcEENS_4pairINS_18__unwrap_ref_decayIT_E4typeENS5_IT0_E4typeEEEOS6_OS9_, symObjAddr: 0x2750, symBinAddr: 0x100014538, symSize: 0x38 }
  - { offsetInCU: 0x4AA0, offset: 0x24211, size: 0x8, addend: 0x0, symName: __ZNSt3__114__rewrap_rangeB7v160006IPKcS2_EET_S3_T0_, symObjAddr: 0x2788, symBinAddr: 0x100014570, symSize: 0x2C }
  - { offsetInCU: 0x4AEC, offset: 0x2425D, size: 0x8, addend: 0x0, symName: __ZNSt3__113__rewrap_iterB7v160006IPcS1_NS_18__unwrap_iter_implIS1_Lb1EEEEET_S4_T0_, symObjAddr: 0x27B4, symBinAddr: 0x10001459C, symSize: 0x50 }
  - { offsetInCU: 0x4B41, offset: 0x242B2, size: 0x8, addend: 0x0, symName: __ZNSt3__19make_pairB7v160006IPKcS2_EENS_4pairINS_18__unwrap_ref_decayIT_E4typeENS4_IT0_E4typeEEEOS5_OS8_, symObjAddr: 0x2804, symBinAddr: 0x1000145EC, symSize: 0x38 }
  - { offsetInCU: 0x4B90, offset: 0x24301, size: 0x8, addend: 0x0, symName: __ZNSt3__113__unwrap_iterB7v160006IPKcNS_18__unwrap_iter_implIS2_Lb1EEELi0EEEDTclsrT0_8__unwrapclsr3stdE7declvalIT_EEEES6_, symObjAddr: 0x283C, symBinAddr: 0x100014624, symSize: 0x24 }
  - { offsetInCU: 0x4CD4, offset: 0x24445, size: 0x8, addend: 0x0, symName: __ZNSt3__119__copy_trivial_implB7v160006IKccEENS_4pairIPT_PT0_EES4_S4_S6_, symObjAddr: 0x28F4, symBinAddr: 0x1000146DC, symSize: 0x7C }
  - { offsetInCU: 0x4D3C, offset: 0x244AD, size: 0x8, addend: 0x0, symName: __ZNSt3__19make_pairB7v160006IRPKcPcEENS_4pairINS_18__unwrap_ref_decayIT_E4typeENS6_IT0_E4typeEEEOS7_OSA_, symObjAddr: 0x2970, symBinAddr: 0x100014758, symSize: 0x38 }
  - { offsetInCU: 0x4DDE, offset: 0x2454F, size: 0x8, addend: 0x0, symName: __ZNSt3__113__rewrap_iterB7v160006IPKcS2_NS_18__unwrap_iter_implIS2_Lb1EEEEET_S5_T0_, symObjAddr: 0x2A3C, symBinAddr: 0x100014824, symSize: 0x50 }
  - { offsetInCU: 0x4E33, offset: 0x245A4, size: 0x8, addend: 0x0, symName: __ZNSt3__16fill_nB7v160006IPcmcEET_S2_T0_RKT1_, symObjAddr: 0x2B1C, symBinAddr: 0x100014904, symSize: 0x44 }
  - { offsetInCU: 0x4E96, offset: 0x24607, size: 0x8, addend: 0x0, symName: __ZNSt3__18__fill_nB7v160006IPcmcEET_S2_T0_RKT1_, symObjAddr: 0x2B60, symBinAddr: 0x100014948, symSize: 0x64 }
  - { offsetInCU: 0x4EF9, offset: 0x2466A, size: 0x8, addend: 0x0, symName: __ZNSt3__121__convert_to_integralB7v160006Em, symObjAddr: 0x2BC4, symBinAddr: 0x1000149AC, symSize: 0x14 }
  - { offsetInCU: 0x7143, offset: 0x268B4, size: 0x8, addend: 0x0, symName: __ZN6ShaderC2Ev, symObjAddr: 0x0, symBinAddr: 0x1000134A4, symSize: 0x18 }
  - { offsetInCU: 0x716F, offset: 0x268E0, size: 0x8, addend: 0x0, symName: __ZN6ShaderC1Ev, symObjAddr: 0x18, symBinAddr: 0x1000134BC, symSize: 0x2C }
  - { offsetInCU: 0x719B, offset: 0x2690C, size: 0x8, addend: 0x0, symName: __ZN6ShaderD2Ev, symObjAddr: 0x44, symBinAddr: 0x1000134E8, symSize: 0x2C }
  - { offsetInCU: 0x71C7, offset: 0x26938, size: 0x8, addend: 0x0, symName: __ZN6Shader11ClearShaderEv, symObjAddr: 0x70, symBinAddr: 0x100013514, symSize: 0x5C }
  - { offsetInCU: 0x71EF, offset: 0x26960, size: 0x8, addend: 0x0, symName: __ZN6ShaderD1Ev, symObjAddr: 0xCC, symBinAddr: 0x100013570, symSize: 0x2C }
  - { offsetInCU: 0x721B, offset: 0x2698C, size: 0x8, addend: 0x0, symName: __ZN6Shader15CreateFromFilesEPKcS1_, symObjAddr: 0xF8, symBinAddr: 0x10001359C, symSize: 0xD8 }
  - { offsetInCU: 0x7297, offset: 0x26A08, size: 0x8, addend: 0x0, symName: __ZN6Shader8ReadFileEPKc, symObjAddr: 0x1D0, symBinAddr: 0x100013674, symSize: 0x230 }
  - { offsetInCU: 0x72FB, offset: 0x26A6C, size: 0x8, addend: 0x0, symName: __ZN6Shader14CompileShadersEPKcS1_, symObjAddr: 0x424, symBinAddr: 0x1000138A4, symSize: 0x204 }
  - { offsetInCU: 0x745F, offset: 0x26BD0, size: 0x8, addend: 0x0, symName: __ZNSt3__112basic_stringIcNS_11char_traitsIcEENS_9allocatorIcEEEC1B7v160006IDnEEPKc, symObjAddr: 0x808, symBinAddr: 0x100013AA8, symSize: 0x34 }
  - { offsetInCU: 0x749D, offset: 0x26C0E, size: 0x8, addend: 0x0, symName: __ZNKSt3__19basic_iosIcNS_11char_traitsIcEEE3eofB7v160006Ev, symObjAddr: 0x83C, symBinAddr: 0x100013ADC, symSize: 0x28 }
  - { offsetInCU: 0x74C3, offset: 0x26C34, size: 0x8, addend: 0x0, symName: __ZNSt3__112basic_stringIcNS_11char_traitsIcEENS_9allocatorIcEEE6appendB7v160006ERKS5_, symObjAddr: 0x8C0, symBinAddr: 0x100013B04, symSize: 0x4C }
  - { offsetInCU: 0x74FD, offset: 0x26C6E, size: 0x8, addend: 0x0, symName: __ZN6Shader9UseShaderEv, symObjAddr: 0xAF0, symBinAddr: 0x100013C6C, symSize: 0x34 }
  - { offsetInCU: 0x7525, offset: 0x26C96, size: 0x8, addend: 0x0, symName: __ZN6Shader16CreateFromStringEPKcS1_, symObjAddr: 0xB24, symBinAddr: 0x100013CA0, symSize: 0x34 }
  - { offsetInCU: 0x7569, offset: 0x26CDA, size: 0x8, addend: 0x0, symName: __ZN6Shader9AddShaderEjPKcj, symObjAddr: 0xB58, symBinAddr: 0x100013CD4, symSize: 0x180 }
  - { offsetInCU: 0x7614, offset: 0x26D85, size: 0x8, addend: 0x0, symName: __ZNSt3__112basic_stringIcNS_11char_traitsIcEENS_9allocatorIcEEEC2B7v160006IDnEEPKc, symObjAddr: 0x1688, symBinAddr: 0x100013E54, symSize: 0x60 }
  - { offsetInCU: 0x7652, offset: 0x26DC3, size: 0x8, addend: 0x0, symName: __ZNKSt3__18ios_base3eofB7v160006Ev, symObjAddr: 0x1754, symBinAddr: 0x100013EB4, symSize: 0x24 }
  - { offsetInCU: 0x769D, offset: 0x26E0E, size: 0x8, addend: 0x0, symName: __ZNSt3__116allocator_traitsINS_9allocatorIcEEE37select_on_container_copy_constructionB7v160006IS2_vvEES2_RKS2_, symObjAddr: 0x200C, symBinAddr: 0x100013ED8, symSize: 0x10 }
  - { offsetInCU: 0x76CC, offset: 0x26E3D, size: 0x8, addend: 0x0, symName: __ZNKSt3__112basic_stringIcNS_11char_traitsIcEENS_9allocatorIcEEE13get_allocatorB7v160006Ev, symObjAddr: 0x201C, symBinAddr: 0x100013EE8, symSize: 0x24 }
  - { offsetInCU: 0x76F2, offset: 0x26E63, size: 0x8, addend: 0x0, symName: __ZNSt3__112basic_stringIcNS_11char_traitsIcEENS_9allocatorIcEEEC1B7v160006ENS_24__uninitialized_size_tagEmRKS4_, symObjAddr: 0x2040, symBinAddr: 0x100013F0C, symSize: 0x3C }
  - { offsetInCU: 0x7745, offset: 0x26EB6, size: 0x8, addend: 0x0, symName: __ZNSt3__112basic_stringIcNS_11char_traitsIcEENS_9allocatorIcEEE13__get_pointerB7v160006Ev, symObjAddr: 0x2090, symBinAddr: 0x100013F5C, symSize: 0x54 }
  - { offsetInCU: 0x776B, offset: 0x26EDC, size: 0x8, addend: 0x0, symName: __ZNSt3__111char_traitsIcE4copyEPcPKcm, symObjAddr: 0x20E4, symBinAddr: 0x100013FB0, symSize: 0x80 }
  - { offsetInCU: 0x77AA, offset: 0x26F1B, size: 0x8, addend: 0x0, symName: __ZNSt3__111char_traitsIcE6assignEPcmc, symObjAddr: 0x2164, symBinAddr: 0x100014030, symSize: 0x58 }
  - { offsetInCU: 0x77E9, offset: 0x26F5A, size: 0x8, addend: 0x0, symName: __ZNSt3__112basic_stringIcNS_11char_traitsIcEENS_9allocatorIcEEEC2B7v160006ENS_24__uninitialized_size_tagEmRKS4_, symObjAddr: 0x21BC, symBinAddr: 0x100014088, symSize: 0x118 }
  - { offsetInCU: 0x7869, offset: 0x26FDA, size: 0x8, addend: 0x0, symName: __ZNSt3__117__compressed_pairINS_12basic_stringIcNS_11char_traitsIcEENS_9allocatorIcEEE5__repES5_EC1B7v160006INS_18__default_init_tagERKS5_EEOT_OT0_, symObjAddr: 0x22D4, symBinAddr: 0x1000141A0, symSize: 0x3C }
  - { offsetInCU: 0x78C1, offset: 0x27032, size: 0x8, addend: 0x0, symName: __ZNKSt3__112basic_stringIcNS_11char_traitsIcEENS_9allocatorIcEEE20__throw_length_errorB7v160006Ev, symObjAddr: 0x2310, symBinAddr: 0x1000141DC, symSize: 0x1C }
  - { offsetInCU: 0x78E7, offset: 0x27058, size: 0x8, addend: 0x0, symName: __ZNSt3__112basic_stringIcNS_11char_traitsIcEENS_9allocatorIcEEE13__fits_in_ssoB7v160006Em, symObjAddr: 0x232C, symBinAddr: 0x1000141F8, symSize: 0x4C }
  - { offsetInCU: 0x790B, offset: 0x2707C, size: 0x8, addend: 0x0, symName: __ZNSt3__117__compressed_pairINS_12basic_stringIcNS_11char_traitsIcEENS_9allocatorIcEEE5__repES5_EC2B7v160006INS_18__default_init_tagERKS5_EEOT_OT0_, symObjAddr: 0x2378, symBinAddr: 0x100014244, symSize: 0x40 }
  - { offsetInCU: 0x7963, offset: 0x270D4, size: 0x8, addend: 0x0, symName: __ZNSt3__122__compressed_pair_elemINS_9allocatorIcEELi1ELb1EEC2B7v160006IRKS2_vEEOT_, symObjAddr: 0x23B8, symBinAddr: 0x100014284, symSize: 0x18 }
  - { offsetInCU: 0x79DD, offset: 0x2714E, size: 0x8, addend: 0x0, symName: __ZNKSt3__114__copy_trivialclB7v160006IKccLi0EEENS_4pairIPT_PT0_EES5_S5_S7_, symObjAddr: 0x26E4, symBinAddr: 0x1000144CC, symSize: 0x48 }
  - { offsetInCU: 0x7A5F, offset: 0x271D0, size: 0x8, addend: 0x0, symName: __ZNSt3__14pairIPKcS2_EC1B7v160006ERKS2_S5_, symObjAddr: 0x2860, symBinAddr: 0x100014648, symSize: 0x3C }
  - { offsetInCU: 0x7AA5, offset: 0x27216, size: 0x8, addend: 0x0, symName: __ZNSt3__14pairIPKcS2_EC2B7v160006ERKS2_S5_, symObjAddr: 0x289C, symBinAddr: 0x100014684, symSize: 0x34 }
  - { offsetInCU: 0x7AEB, offset: 0x2725C, size: 0x8, addend: 0x0, symName: __ZNSt3__118__unwrap_iter_implIPKcLb1EE8__unwrapB7v160006ES2_, symObjAddr: 0x28D0, symBinAddr: 0x1000146B8, symSize: 0x24 }
  - { offsetInCU: 0x7B0E, offset: 0x2727F, size: 0x8, addend: 0x0, symName: __ZNSt3__14pairIPKcPcEC1B7v160006ERKS2_RKS3_, symObjAddr: 0x29A8, symBinAddr: 0x100014790, symSize: 0x3C }
  - { offsetInCU: 0x7B54, offset: 0x272C5, size: 0x8, addend: 0x0, symName: __ZNSt3__14pairIPKcPcEC2B7v160006ERKS2_RKS3_, symObjAddr: 0x29E4, symBinAddr: 0x1000147CC, symSize: 0x34 }
  - { offsetInCU: 0x7B9A, offset: 0x2730B, size: 0x8, addend: 0x0, symName: __ZNSt3__118__unwrap_iter_implIPcLb1EE8__unwrapB7v160006ES1_, symObjAddr: 0x2A18, symBinAddr: 0x100014800, symSize: 0x24 }
  - { offsetInCU: 0x7BBD, offset: 0x2732E, size: 0x8, addend: 0x0, symName: __ZNSt3__118__unwrap_iter_implIPKcLb1EE8__rewrapB7v160006ES2_S2_, symObjAddr: 0x2A8C, symBinAddr: 0x100014874, symSize: 0x48 }
  - { offsetInCU: 0x7BEE, offset: 0x2735F, size: 0x8, addend: 0x0, symName: __ZNSt3__118__unwrap_iter_implIPcLb1EE8__rewrapB7v160006ES1_S1_, symObjAddr: 0x2AD4, symBinAddr: 0x1000148BC, symSize: 0x48 }
  - { offsetInCU: 0x26, offset: 0x2743B, size: 0x8, addend: 0x0, symName: __ZN6WindowC2Ev, symObjAddr: 0x0, symBinAddr: 0x1000149C0, symSize: 0x34 }
  - { offsetInCU: 0x2C1, offset: 0x276D6, size: 0x8, addend: 0x0, symName: __ZN6WindowC2Ev, symObjAddr: 0x0, symBinAddr: 0x1000149C0, symSize: 0x34 }
  - { offsetInCU: 0x2ED, offset: 0x27702, size: 0x8, addend: 0x0, symName: __ZN6WindowC1Ev, symObjAddr: 0x34, symBinAddr: 0x1000149F4, symSize: 0x2C }
  - { offsetInCU: 0x319, offset: 0x2772E, size: 0x8, addend: 0x0, symName: __ZN6WindowC2Eiiii, symObjAddr: 0x60, symBinAddr: 0x100014A20, symSize: 0x44 }
  - { offsetInCU: 0x37D, offset: 0x27792, size: 0x8, addend: 0x0, symName: __ZN6WindowC1Eiiii, symObjAddr: 0xA4, symBinAddr: 0x100014A64, symSize: 0x4C }
  - { offsetInCU: 0x3E1, offset: 0x277F6, size: 0x8, addend: 0x0, symName: __ZN6WindowD2Ev, symObjAddr: 0xF0, symBinAddr: 0x100014AB0, symSize: 0x34 }
  - { offsetInCU: 0x40D, offset: 0x27822, size: 0x8, addend: 0x0, symName: __ZN6WindowD1Ev, symObjAddr: 0x124, symBinAddr: 0x100014AE4, symSize: 0x2C }
  - { offsetInCU: 0x439, offset: 0x2784E, size: 0x8, addend: 0x0, symName: __ZN6Window10initialiseEv, symObjAddr: 0x150, symBinAddr: 0x100014B10, symSize: 0x1A0 }
  - { offsetInCU: 0x26, offset: 0x278A1, size: 0x8, addend: 0x0, symName: _stbi_failure_reason, symObjAddr: 0x0, symBinAddr: 0x100014CB0, symSize: 0x24 }
  - { offsetInCU: 0x59, offset: 0x278D4, size: 0x8, addend: 0x0, symName: __ZL36stbi__vertically_flip_on_load_global, symObjAddr: 0x3AF98, symBinAddr: 0x100040170, symSize: 0x0 }
  - { offsetInCU: 0x7B, offset: 0x278F6, size: 0x8, addend: 0x0, symName: __ZL21stbi__stdio_callbacks, symObjAddr: 0x1A628, symBinAddr: 0x100040010, symSize: 0x0 }
  - { offsetInCU: 0x107, offset: 0x27982, size: 0x8, addend: 0x0, symName: __ZL22stbi__check_png_headerP13stbi__context, symObjAddr: 0x74AC, symBinAddr: 0x10001C15C, symSize: 0x98 }
  - { offsetInCU: 0x133, offset: 0x279AE, size: 0x8, addend: 0x0, symName: __ZZL22stbi__check_png_headerP13stbi__contextE7png_sig, symObjAddr: 0x1A6A8, symBinAddr: 0x10003A9F4, symSize: 0x0 }
  - { offsetInCU: 0x182, offset: 0x279FD, size: 0x8, addend: 0x0, symName: __ZL20stbi__parse_png_fileP9stbi__pngii, symObjAddr: 0x79C8, symBinAddr: 0x10001C678, symSize: 0xE50 }
  - { offsetInCU: 0x1AE, offset: 0x27A29, size: 0x8, addend: 0x0, symName: __ZZL20stbi__parse_png_fileP9stbi__pngiiE13invalid_chunk, symObjAddr: 0x1A640, symBinAddr: 0x100040028, symSize: 0x0 }
  - { offsetInCU: 0x39A, offset: 0x27C15, size: 0x8, addend: 0x0, symName: __ZL23stbi__depth_scale_table, symObjAddr: 0x1A6B0, symBinAddr: 0x10003A9FC, symSize: 0x0 }
  - { offsetInCU: 0x3C3, offset: 0x27C3E, size: 0x8, addend: 0x0, symName: __ZL16first_row_filter, symObjAddr: 0x1A659, symBinAddr: 0x100040041, symSize: 0x0 }
  - { offsetInCU: 0x3DF, offset: 0x27C5A, size: 0x8, addend: 0x0, symName: __ZL17stbi__shiftsignedjii, symObjAddr: 0xD254, symBinAddr: 0x100021F04, symSize: 0x144 }
  - { offsetInCU: 0x40B, offset: 0x27C86, size: 0x8, addend: 0x0, symName: __ZZL17stbi__shiftsignedjiiE9mul_table, symObjAddr: 0x1A660, symBinAddr: 0x100040048, symSize: 0x0 }
  - { offsetInCU: 0x422, offset: 0x27C9D, size: 0x8, addend: 0x0, symName: __ZZL17stbi__shiftsignedjiiE11shift_table, symObjAddr: 0x1A684, symBinAddr: 0x10004006C, symSize: 0x0 }
  - { offsetInCU: 0x46F, offset: 0x27CEA, size: 0x8, addend: 0x0, symName: __ZL20stbi__process_markerP10stbi__jpegi, symObjAddr: 0x10738, symBinAddr: 0x1000253E8, symSize: 0x81C }
  - { offsetInCU: 0x49B, offset: 0x27D16, size: 0x8, addend: 0x0, symName: __ZZL20stbi__process_markerP10stbi__jpegiE3tag, symObjAddr: 0x1A77B, symBinAddr: 0x10003AAC7, symSize: 0x0 }
  - { offsetInCU: 0x4B2, offset: 0x27D2D, size: 0x8, addend: 0x0, symName: __ZZL20stbi__process_markerP10stbi__jpegiE3tag_0, symObjAddr: 0x1A780, symBinAddr: 0x10003AACC, symSize: 0x0 }
  - { offsetInCU: 0x64C, offset: 0x27EC7, size: 0x8, addend: 0x0, symName: __ZL19stbi__jpeg_dezigzag, symObjAddr: 0x1A72C, symBinAddr: 0x10003AA78, symSize: 0x0 }
  - { offsetInCU: 0x668, offset: 0x27EE3, size: 0x8, addend: 0x0, symName: __ZL26stbi__process_frame_headerP10stbi__jpegi, symObjAddr: 0x10F54, symBinAddr: 0x100025C04, symSize: 0xC44 }
  - { offsetInCU: 0x694, offset: 0x27F0F, size: 0x8, addend: 0x0, symName: __ZZL26stbi__process_frame_headerP10stbi__jpegiE3rgb, symObjAddr: 0x1A786, symBinAddr: 0x10003AAD2, symSize: 0x0 }
  - { offsetInCU: 0x750, offset: 0x27FCB, size: 0x8, addend: 0x0, symName: __ZL11stbi__bmask, symObjAddr: 0x1A78C, symBinAddr: 0x10003AAD8, symSize: 0x0 }
  - { offsetInCU: 0x78A, offset: 0x28005, size: 0x8, addend: 0x0, symName: __ZL11stbi__jbias, symObjAddr: 0x1A7D0, symBinAddr: 0x10003AB1C, symSize: 0x0 }
  - { offsetInCU: 0x7B8, offset: 0x28033, size: 0x8, addend: 0x0, symName: __ZL15stbi__l2h_gamma, symObjAddr: 0x1A618, symBinAddr: 0x100040000, symSize: 0x0 }
  - { offsetInCU: 0x7DA, offset: 0x28055, size: 0x8, addend: 0x0, symName: __ZL15stbi__l2h_scale, symObjAddr: 0x1A61C, symBinAddr: 0x100040004, symSize: 0x0 }
  - { offsetInCU: 0x7F5, offset: 0x28070, size: 0x8, addend: 0x0, symName: __ZL17stbi__h2l_gamma_i, symObjAddr: 0x1A620, symBinAddr: 0x100040008, symSize: 0x0 }
  - { offsetInCU: 0x810, offset: 0x2808B, size: 0x8, addend: 0x0, symName: __ZL17stbi__h2l_scale_i, symObjAddr: 0x1A624, symBinAddr: 0x10004000C, symSize: 0x0 }
  - { offsetInCU: 0x82B, offset: 0x280A6, size: 0x8, addend: 0x0, symName: __ZL21stbi__zdefault_length, symObjAddr: 0x1A810, symBinAddr: 0x10003AB5C, symSize: 0x0 }
  - { offsetInCU: 0x855, offset: 0x280D0, size: 0x8, addend: 0x0, symName: __ZL23stbi__zdefault_distance, symObjAddr: 0x1A930, symBinAddr: 0x10003AC7C, symSize: 0x0 }
  - { offsetInCU: 0x871, offset: 0x280EC, size: 0x8, addend: 0x0, symName: __ZL27stbi__compute_huffman_codesP10stbi__zbuf, symObjAddr: 0x17C3C, symBinAddr: 0x10002C8EC, symSize: 0x3D0 }
  - { offsetInCU: 0x89D, offset: 0x28118, size: 0x8, addend: 0x0, symName: __ZZL27stbi__compute_huffman_codesP10stbi__zbufE15length_dezigzag, symObjAddr: 0x1A950, symBinAddr: 0x10003AC9C, symSize: 0x0 }
  - { offsetInCU: 0x9AD, offset: 0x28228, size: 0x8, addend: 0x0, symName: __ZL18stbi__zlength_base, symObjAddr: 0x1A964, symBinAddr: 0x10003ACB0, symSize: 0x0 }
  - { offsetInCU: 0x9D6, offset: 0x28251, size: 0x8, addend: 0x0, symName: __ZL19stbi__zlength_extra, symObjAddr: 0x1A9E0, symBinAddr: 0x10003AD2C, symSize: 0x0 }
  - { offsetInCU: 0x9F1, offset: 0x2826C, size: 0x8, addend: 0x0, symName: __ZL16stbi__zdist_base, symObjAddr: 0x1AA5C, symBinAddr: 0x10003ADA8, symSize: 0x0 }
  - { offsetInCU: 0xA1A, offset: 0x28295, size: 0x8, addend: 0x0, symName: __ZL17stbi__zdist_extra, symObjAddr: 0x1AADC, symBinAddr: 0x10003AE28, symSize: 0x0 }
  - { offsetInCU: 0xA35, offset: 0x282B0, size: 0x8, addend: 0x0, symName: __ZL34stbi__unpremultiply_on_load_global, symObjAddr: 0x3AF9C, symBinAddr: 0x100040174, symSize: 0x0 }
  - { offsetInCU: 0xA50, offset: 0x282CB, size: 0x8, addend: 0x0, symName: __ZL27stbi__de_iphone_flag_global, symObjAddr: 0x3AFA0, symBinAddr: 0x100040178, symSize: 0x0 }
  - { offsetInCU: 0x1420, offset: 0x28C9B, size: 0x8, addend: 0x0, symName: _stbi_failure_reason, symObjAddr: 0x0, symBinAddr: 0x100014CB0, symSize: 0x24 }
  - { offsetInCU: 0x143B, offset: 0x28CB6, size: 0x8, addend: 0x0, symName: _stbi_image_free, symObjAddr: 0x24, symBinAddr: 0x100014CD4, symSize: 0x24 }
  - { offsetInCU: 0x1462, offset: 0x28CDD, size: 0x8, addend: 0x0, symName: _stbi_set_flip_vertically_on_load, symObjAddr: 0x48, symBinAddr: 0x100014CF8, symSize: 0x1C }
  - { offsetInCU: 0x1489, offset: 0x28D04, size: 0x8, addend: 0x0, symName: _stbi_set_flip_vertically_on_load_thread, symObjAddr: 0x64, symBinAddr: 0x100014D14, symSize: 0x4C }
  - { offsetInCU: 0x14B0, offset: 0x28D2B, size: 0x8, addend: 0x0, symName: _stbi_load, symObjAddr: 0xB0, symBinAddr: 0x100014D60, symSize: 0xB4 }
  - { offsetInCU: 0x1535, offset: 0x28DB0, size: 0x8, addend: 0x0, symName: __ZL11stbi__fopenPKcS0_, symObjAddr: 0x164, symBinAddr: 0x100014E14, symSize: 0x34 }
  - { offsetInCU: 0x1582, offset: 0x28DFD, size: 0x8, addend: 0x0, symName: __ZL9stbi__errPKc, symObjAddr: 0x198, symBinAddr: 0x100014E48, symSize: 0x38 }
  - { offsetInCU: 0x15B1, offset: 0x28E2C, size: 0x8, addend: 0x0, symName: _stbi_load_from_file, symObjAddr: 0x1D0, symBinAddr: 0x100014E80, symSize: 0xE4 }
  - { offsetInCU: 0x1638, offset: 0x28EB3, size: 0x8, addend: 0x0, symName: __ZL16stbi__start_fileP13stbi__contextP7__sFILE, symObjAddr: 0x2B4, symBinAddr: 0x100014F64, symSize: 0x34 }
  - { offsetInCU: 0x1672, offset: 0x28EED, size: 0x8, addend: 0x0, symName: __ZL31stbi__load_and_postprocess_8bitP13stbi__contextPiS1_S1_i, symObjAddr: 0x2E8, symBinAddr: 0x100014F98, symSize: 0x1F4 }
  - { offsetInCU: 0x1719, offset: 0x28F94, size: 0x8, addend: 0x0, symName: _stbi_load_from_file_16, symObjAddr: 0x4DC, symBinAddr: 0x10001518C, symSize: 0xE4 }
  - { offsetInCU: 0x17A0, offset: 0x2901B, size: 0x8, addend: 0x0, symName: __ZL32stbi__load_and_postprocess_16bitP13stbi__contextPiS1_S1_i, symObjAddr: 0x5C0, symBinAddr: 0x100015270, symSize: 0x1F8 }
  - { offsetInCU: 0x1847, offset: 0x290C2, size: 0x8, addend: 0x0, symName: _stbi_load_16, symObjAddr: 0x7B8, symBinAddr: 0x100015468, symSize: 0xB4 }
  - { offsetInCU: 0x18CC, offset: 0x29147, size: 0x8, addend: 0x0, symName: _stbi_load_16_from_memory, symObjAddr: 0x86C, symBinAddr: 0x10001551C, symSize: 0xA0 }
  - { offsetInCU: 0x1953, offset: 0x291CE, size: 0x8, addend: 0x0, symName: __ZL15stbi__start_memP13stbi__contextPKhi, symObjAddr: 0x90C, symBinAddr: 0x1000155BC, symSize: 0x60 }
  - { offsetInCU: 0x199C, offset: 0x29217, size: 0x8, addend: 0x0, symName: _stbi_load_16_from_callbacks, symObjAddr: 0x96C, symBinAddr: 0x10001561C, symSize: 0xA0 }
  - { offsetInCU: 0x1A23, offset: 0x2929E, size: 0x8, addend: 0x0, symName: __ZL21stbi__start_callbacksP13stbi__contextP17stbi_io_callbacksPv, symObjAddr: 0xA0C, symBinAddr: 0x1000156BC, symSize: 0x9C }
  - { offsetInCU: 0x1A6C, offset: 0x292E7, size: 0x8, addend: 0x0, symName: _stbi_load_from_memory, symObjAddr: 0xAA8, symBinAddr: 0x100015758, symSize: 0xA0 }
  - { offsetInCU: 0x1AF3, offset: 0x2936E, size: 0x8, addend: 0x0, symName: _stbi_load_from_callbacks, symObjAddr: 0xB48, symBinAddr: 0x1000157F8, symSize: 0xA0 }
  - { offsetInCU: 0x1B7A, offset: 0x293F5, size: 0x8, addend: 0x0, symName: _stbi_load_gif_from_memory, symObjAddr: 0xBE8, symBinAddr: 0x100015898, symSize: 0x134 }
  - { offsetInCU: 0x1C32, offset: 0x294AD, size: 0x8, addend: 0x0, symName: __ZL19stbi__load_gif_mainP13stbi__contextPPiS1_S1_S1_S1_i, symObjAddr: 0xD1C, symBinAddr: 0x1000159CC, symSize: 0x500 }
  - { offsetInCU: 0x1D84, offset: 0x295FF, size: 0x8, addend: 0x0, symName: __ZL26stbi__vertical_flip_slicesPviiii, symObjAddr: 0x121C, symBinAddr: 0x100015ECC, symSize: 0xA4 }
  - { offsetInCU: 0x1E18, offset: 0x29693, size: 0x8, addend: 0x0, symName: _stbi_loadf_from_memory, symObjAddr: 0x12C0, symBinAddr: 0x100015F70, symSize: 0xA0 }
  - { offsetInCU: 0x1E9F, offset: 0x2971A, size: 0x8, addend: 0x0, symName: __ZL16stbi__loadf_mainP13stbi__contextPiS1_S1_i, symObjAddr: 0x1360, symBinAddr: 0x100016010, symSize: 0x16C }
  - { offsetInCU: 0x1F46, offset: 0x297C1, size: 0x8, addend: 0x0, symName: _stbi_loadf_from_callbacks, symObjAddr: 0x14CC, symBinAddr: 0x10001617C, symSize: 0xA0 }
  - { offsetInCU: 0x1FCD, offset: 0x29848, size: 0x8, addend: 0x0, symName: _stbi_loadf, symObjAddr: 0x156C, symBinAddr: 0x10001621C, symSize: 0xB4 }
  - { offsetInCU: 0x2052, offset: 0x298CD, size: 0x8, addend: 0x0, symName: _stbi_loadf_from_file, symObjAddr: 0x1620, symBinAddr: 0x1000162D0, symSize: 0x98 }
  - { offsetInCU: 0x20C8, offset: 0x29943, size: 0x8, addend: 0x0, symName: _stbi_is_hdr_from_memory, symObjAddr: 0x16B8, symBinAddr: 0x100016368, symSize: 0x80 }
  - { offsetInCU: 0x2111, offset: 0x2998C, size: 0x8, addend: 0x0, symName: __ZL14stbi__hdr_testP13stbi__context, symObjAddr: 0x1738, symBinAddr: 0x1000163E8, symSize: 0x70 }
  - { offsetInCU: 0x214F, offset: 0x299CA, size: 0x8, addend: 0x0, symName: _stbi_is_hdr, symObjAddr: 0x17A8, symBinAddr: 0x100016458, symSize: 0x64 }
  - { offsetInCU: 0x2198, offset: 0x29A13, size: 0x8, addend: 0x0, symName: _stbi_is_hdr_from_file, symObjAddr: 0x180C, symBinAddr: 0x1000164BC, symSize: 0x9C }
  - { offsetInCU: 0x21F0, offset: 0x29A6B, size: 0x8, addend: 0x0, symName: _stbi_is_hdr_from_callbacks, symObjAddr: 0x18A8, symBinAddr: 0x100016558, symSize: 0x80 }
  - { offsetInCU: 0x2239, offset: 0x29AB4, size: 0x8, addend: 0x0, symName: _stbi_ldr_to_hdr_gamma, symObjAddr: 0x1928, symBinAddr: 0x1000165D8, symSize: 0x1C }
  - { offsetInCU: 0x2260, offset: 0x29ADB, size: 0x8, addend: 0x0, symName: _stbi_ldr_to_hdr_scale, symObjAddr: 0x1944, symBinAddr: 0x1000165F4, symSize: 0x1C }
  - { offsetInCU: 0x2287, offset: 0x29B02, size: 0x8, addend: 0x0, symName: _stbi_hdr_to_ldr_gamma, symObjAddr: 0x1960, symBinAddr: 0x100016610, symSize: 0x24 }
  - { offsetInCU: 0x22AE, offset: 0x29B29, size: 0x8, addend: 0x0, symName: _stbi_hdr_to_ldr_scale, symObjAddr: 0x1984, symBinAddr: 0x100016634, symSize: 0x24 }
  - { offsetInCU: 0x22D5, offset: 0x29B50, size: 0x8, addend: 0x0, symName: _stbi_zlib_decode_malloc_guesssize, symObjAddr: 0x19A8, symBinAddr: 0x100016658, symSize: 0x138 }
  - { offsetInCU: 0x234B, offset: 0x29BC6, size: 0x8, addend: 0x0, symName: __ZL12stbi__mallocm, symObjAddr: 0x1AE0, symBinAddr: 0x100016790, symSize: 0x24 }
  - { offsetInCU: 0x237A, offset: 0x29BF5, size: 0x8, addend: 0x0, symName: __ZL13stbi__do_zlibP10stbi__zbufPciii, symObjAddr: 0x1B04, symBinAddr: 0x1000167B4, symSize: 0x70 }
  - { offsetInCU: 0x23E5, offset: 0x29C60, size: 0x8, addend: 0x0, symName: _stbi_zlib_decode_malloc, symObjAddr: 0x1B74, symBinAddr: 0x100016824, symSize: 0x38 }
  - { offsetInCU: 0x242E, offset: 0x29CA9, size: 0x8, addend: 0x0, symName: _stbi_zlib_decode_malloc_guesssize_headerflag, symObjAddr: 0x1BAC, symBinAddr: 0x10001685C, symSize: 0x13C }
  - { offsetInCU: 0x24B3, offset: 0x29D2E, size: 0x8, addend: 0x0, symName: _stbi_zlib_decode_buffer, symObjAddr: 0x1CE8, symBinAddr: 0x100016998, symSize: 0xE8 }
  - { offsetInCU: 0x251A, offset: 0x29D95, size: 0x8, addend: 0x0, symName: _stbi_zlib_decode_noheader_malloc, symObjAddr: 0x1DD0, symBinAddr: 0x100016A80, symSize: 0x134 }
  - { offsetInCU: 0x2581, offset: 0x29DFC, size: 0x8, addend: 0x0, symName: _stbi_zlib_decode_noheader_buffer, symObjAddr: 0x1F04, symBinAddr: 0x100016BB4, symSize: 0xE8 }
  - { offsetInCU: 0x25E8, offset: 0x29E63, size: 0x8, addend: 0x0, symName: _stbi_set_unpremultiply_on_load, symObjAddr: 0x1FEC, symBinAddr: 0x100016C9C, symSize: 0x1C }
  - { offsetInCU: 0x260F, offset: 0x29E8A, size: 0x8, addend: 0x0, symName: _stbi_convert_iphone_png_to_rgb, symObjAddr: 0x2008, symBinAddr: 0x100016CB8, symSize: 0x1C }
  - { offsetInCU: 0x2636, offset: 0x29EB1, size: 0x8, addend: 0x0, symName: __Z34stbi__unpremultiply_on_load_threadi, symObjAddr: 0x2024, symBinAddr: 0x100016CD4, symSize: 0x4C }
  - { offsetInCU: 0x2660, offset: 0x29EDB, size: 0x8, addend: 0x0, symName: _stbi_convert_iphone_png_to_rgb_thread, symObjAddr: 0x2070, symBinAddr: 0x100016D20, symSize: 0x4C }
  - { offsetInCU: 0x2687, offset: 0x29F02, size: 0x8, addend: 0x0, symName: _stbi_info, symObjAddr: 0x20BC, symBinAddr: 0x100016D6C, symSize: 0x94 }
  - { offsetInCU: 0x26FD, offset: 0x29F78, size: 0x8, addend: 0x0, symName: _stbi_info_from_file, symObjAddr: 0x2150, symBinAddr: 0x100016E00, symSize: 0xB4 }
  - { offsetInCU: 0x2784, offset: 0x29FFF, size: 0x8, addend: 0x0, symName: __ZL15stbi__info_mainP13stbi__contextPiS1_S1_, symObjAddr: 0x2204, symBinAddr: 0x100016EB4, symSize: 0x1F0 }
  - { offsetInCU: 0x27E0, offset: 0x2A05B, size: 0x8, addend: 0x0, symName: _stbi_is_16_bit, symObjAddr: 0x23F4, symBinAddr: 0x1000170A4, symSize: 0x7C }
  - { offsetInCU: 0x2829, offset: 0x2A0A4, size: 0x8, addend: 0x0, symName: _stbi_is_16_bit_from_file, symObjAddr: 0x2470, symBinAddr: 0x100017120, symSize: 0x9C }
  - { offsetInCU: 0x2881, offset: 0x2A0FC, size: 0x8, addend: 0x0, symName: __ZL16stbi__is_16_mainP13stbi__context, symObjAddr: 0x250C, symBinAddr: 0x1000171BC, symSize: 0x94 }
  - { offsetInCU: 0x28B0, offset: 0x2A12B, size: 0x8, addend: 0x0, symName: _stbi_info_from_memory, symObjAddr: 0x25A0, symBinAddr: 0x100017250, symSize: 0x98 }
  - { offsetInCU: 0x2926, offset: 0x2A1A1, size: 0x8, addend: 0x0, symName: _stbi_info_from_callbacks, symObjAddr: 0x2638, symBinAddr: 0x1000172E8, symSize: 0x98 }
  - { offsetInCU: 0x299C, offset: 0x2A217, size: 0x8, addend: 0x0, symName: _stbi_is_16_bit_from_memory, symObjAddr: 0x26D0, symBinAddr: 0x100017380, symSize: 0x80 }
  - { offsetInCU: 0x29E5, offset: 0x2A260, size: 0x8, addend: 0x0, symName: _stbi_is_16_bit_from_callbacks, symObjAddr: 0x2750, symBinAddr: 0x100017400, symSize: 0x80 }
  - { offsetInCU: 0x2A2E, offset: 0x2A2A9, size: 0x8, addend: 0x0, symName: __ZL16stbi__stdio_readPvPci, symObjAddr: 0x27D0, symBinAddr: 0x100017480, symSize: 0x38 }
  - { offsetInCU: 0x2A7B, offset: 0x2A2F6, size: 0x8, addend: 0x0, symName: __ZL16stbi__stdio_skipPvi, symObjAddr: 0x2808, symBinAddr: 0x1000174B8, symSize: 0x60 }
  - { offsetInCU: 0x2AC4, offset: 0x2A33F, size: 0x8, addend: 0x0, symName: __ZL15stbi__stdio_eofPv, symObjAddr: 0x2868, symBinAddr: 0x100017518, symSize: 0x5C }
  - { offsetInCU: 0x2AF3, offset: 0x2A36E, size: 0x8, addend: 0x0, symName: __ZL15stbi__load_mainP13stbi__contextPiS1_S1_iP17stbi__result_infoi, symObjAddr: 0x28C4, symBinAddr: 0x100017574, symSize: 0x314 }
  - { offsetInCU: 0x2B9A, offset: 0x2A415, size: 0x8, addend: 0x0, symName: __ZL21stbi__convert_16_to_8Ptiii, symObjAddr: 0x2BD8, symBinAddr: 0x100017888, symSize: 0xF8 }
  - { offsetInCU: 0x2C23, offset: 0x2A49E, size: 0x8, addend: 0x0, symName: __ZL19stbi__vertical_flipPviii, symObjAddr: 0x2CD0, symBinAddr: 0x100017980, symSize: 0x1B0 }
  - { offsetInCU: 0x2D17, offset: 0x2A592, size: 0x8, addend: 0x0, symName: __ZL14stbi__png_testP13stbi__context, symObjAddr: 0x2E80, symBinAddr: 0x100017B30, symSize: 0x34 }
  - { offsetInCU: 0x2D55, offset: 0x2A5D0, size: 0x8, addend: 0x0, symName: __ZL14stbi__png_loadP13stbi__contextPiS1_S1_iP17stbi__result_info, symObjAddr: 0x2EB4, symBinAddr: 0x100017B64, symSize: 0x54 }
  - { offsetInCU: 0x2DDE, offset: 0x2A659, size: 0x8, addend: 0x0, symName: __ZL14stbi__bmp_testP13stbi__context, symObjAddr: 0x2F08, symBinAddr: 0x100017BB8, symSize: 0x34 }
  - { offsetInCU: 0x2E1C, offset: 0x2A697, size: 0x8, addend: 0x0, symName: __ZL14stbi__bmp_loadP13stbi__contextPiS1_S1_iP17stbi__result_info, symObjAddr: 0x2F3C, symBinAddr: 0x100017BEC, symSize: 0x1328 }
  - { offsetInCU: 0x3183, offset: 0x2A9FE, size: 0x8, addend: 0x0, symName: __ZL14stbi__gif_testP13stbi__context, symObjAddr: 0x4264, symBinAddr: 0x100018F14, symSize: 0x34 }
  - { offsetInCU: 0x31C1, offset: 0x2AA3C, size: 0x8, addend: 0x0, symName: __ZL14stbi__gif_loadP13stbi__contextPiS1_S1_iP17stbi__result_info, symObjAddr: 0x4298, symBinAddr: 0x100018F48, symSize: 0x184 }
  - { offsetInCU: 0x325A, offset: 0x2AAD5, size: 0x8, addend: 0x0, symName: __ZL14stbi__psd_testP13stbi__context, symObjAddr: 0x441C, symBinAddr: 0x1000190CC, symSize: 0x48 }
  - { offsetInCU: 0x3298, offset: 0x2AB13, size: 0x8, addend: 0x0, symName: __ZL14stbi__psd_loadP13stbi__contextPiS1_S1_iP17stbi__result_infoi, symObjAddr: 0x4464, symBinAddr: 0x100019114, symSize: 0xC90 }
  - { offsetInCU: 0x3525, offset: 0x2ADA0, size: 0x8, addend: 0x0, symName: __ZL14stbi__pic_testP13stbi__context, symObjAddr: 0x50F4, symBinAddr: 0x100019DA4, symSize: 0x34 }
  - { offsetInCU: 0x3563, offset: 0x2ADDE, size: 0x8, addend: 0x0, symName: __ZL14stbi__pic_loadP13stbi__contextPiS1_S1_iP17stbi__result_info, symObjAddr: 0x5128, symBinAddr: 0x100019DD8, symSize: 0x2F0 }
  - { offsetInCU: 0x3628, offset: 0x2AEA3, size: 0x8, addend: 0x0, symName: __ZL15stbi__jpeg_testP13stbi__context, symObjAddr: 0x5418, symBinAddr: 0x10001A0C8, symSize: 0x94 }
  - { offsetInCU: 0x3675, offset: 0x2AEF0, size: 0x8, addend: 0x0, symName: __ZL15stbi__jpeg_loadP13stbi__contextPiS1_S1_iP17stbi__result_info, symObjAddr: 0x54AC, symBinAddr: 0x10001A15C, symSize: 0xC4 }
  - { offsetInCU: 0x370D, offset: 0x2AF88, size: 0x8, addend: 0x0, symName: __ZL14stbi__pnm_testP13stbi__context, symObjAddr: 0x5570, symBinAddr: 0x10001A220, symSize: 0x90 }
  - { offsetInCU: 0x375A, offset: 0x2AFD5, size: 0x8, addend: 0x0, symName: __ZL14stbi__pnm_loadP13stbi__contextPiS1_S1_iP17stbi__result_info, symObjAddr: 0x5600, symBinAddr: 0x10001A2B0, symSize: 0x2F8 }
  - { offsetInCU: 0x37E3, offset: 0x2B05E, size: 0x8, addend: 0x0, symName: __ZL14stbi__hdr_loadP13stbi__contextPiS1_S1_iP17stbi__result_info, symObjAddr: 0x58F8, symBinAddr: 0x10001A5A8, symSize: 0xA18 }
  - { offsetInCU: 0x39DB, offset: 0x2B256, size: 0x8, addend: 0x0, symName: __ZL16stbi__hdr_to_ldrPfiii, symObjAddr: 0x6310, symBinAddr: 0x10001AFC0, symSize: 0x2D0 }
  - { offsetInCU: 0x3AAF, offset: 0x2B32A, size: 0x8, addend: 0x0, symName: __ZL14stbi__tga_testP13stbi__context, symObjAddr: 0x65E0, symBinAddr: 0x10001B290, symSize: 0x2A0 }
  - { offsetInCU: 0x3B1C, offset: 0x2B397, size: 0x8, addend: 0x0, symName: __ZL14stbi__tga_loadP13stbi__contextPiS1_S1_iP17stbi__result_info, symObjAddr: 0x6880, symBinAddr: 0x10001B530, symSize: 0xC2C }
  - { offsetInCU: 0x3E17, offset: 0x2B692, size: 0x8, addend: 0x0, symName: __ZL12stbi__rewindP13stbi__context, symObjAddr: 0x7544, symBinAddr: 0x10001C1F4, symSize: 0x30 }
  - { offsetInCU: 0x3E42, offset: 0x2B6BD, size: 0x8, addend: 0x0, symName: __ZL10stbi__get8P13stbi__context, symObjAddr: 0x7574, symBinAddr: 0x10001C224, symSize: 0xA0 }
  - { offsetInCU: 0x3E71, offset: 0x2B6EC, size: 0x8, addend: 0x0, symName: __ZL19stbi__refill_bufferP13stbi__context, symObjAddr: 0x7614, symBinAddr: 0x10001C2C4, symSize: 0xE4 }
  - { offsetInCU: 0x3EAB, offset: 0x2B726, size: 0x8, addend: 0x0, symName: __ZL12stbi__do_pngP9stbi__pngPiS1_S1_iP17stbi__result_info, symObjAddr: 0x76F8, symBinAddr: 0x10001C3A8, symSize: 0x2D0 }
  - { offsetInCU: 0x3F34, offset: 0x2B7AF, size: 0x8, addend: 0x0, symName: __ZL20stbi__convert_formatPhiijj, symObjAddr: 0x8818, symBinAddr: 0x10001D4C8, symSize: 0x7C8 }
  - { offsetInCU: 0x3FF9, offset: 0x2B874, size: 0x8, addend: 0x0, symName: __ZL22stbi__convert_format16Ptiijj, symObjAddr: 0x9048, symBinAddr: 0x10001DCF8, symSize: 0x7D4 }
  - { offsetInCU: 0x40BE, offset: 0x2B939, size: 0x8, addend: 0x0, symName: __ZL22stbi__get_chunk_headerP13stbi__context, symObjAddr: 0x9884, symBinAddr: 0x10001E534, symSize: 0x38 }
  - { offsetInCU: 0x40FC, offset: 0x2B977, size: 0x8, addend: 0x0, symName: __ZL10stbi__skipP13stbi__contexti, symObjAddr: 0x98BC, symBinAddr: 0x10001E56C, symSize: 0xF8 }
  - { offsetInCU: 0x4154, offset: 0x2B9CF, size: 0x8, addend: 0x0, symName: __ZL13stbi__get32beP13stbi__context, symObjAddr: 0x99B4, symBinAddr: 0x10001E664, symSize: 0x40 }
  - { offsetInCU: 0x4192, offset: 0x2BA0D, size: 0x8, addend: 0x0, symName: __ZL13stbi__get16beP13stbi__context, symObjAddr: 0x99F4, symBinAddr: 0x10001E6A4, symSize: 0x48 }
  - { offsetInCU: 0x41D0, offset: 0x2BA4B, size: 0x8, addend: 0x0, symName: __ZL10stbi__getnP13stbi__contextPhi, symObjAddr: 0x9A3C, symBinAddr: 0x10001E6EC, symSize: 0x158 }
  - { offsetInCU: 0x4268, offset: 0x2BAE3, size: 0x8, addend: 0x0, symName: __ZL22stbi__create_png_imageP9stbi__pngPhjiiii, symObjAddr: 0x9B94, symBinAddr: 0x10001E844, symSize: 0x464 }
  - { offsetInCU: 0x440A, offset: 0x2BC85, size: 0x8, addend: 0x0, symName: __ZL28stbi__compute_transparency16P9stbi__pngPti, symObjAddr: 0x9FF8, symBinAddr: 0x10001ECA8, symSize: 0x1F4 }
  - { offsetInCU: 0x4493, offset: 0x2BD0E, size: 0x8, addend: 0x0, symName: __ZL26stbi__compute_transparencyP9stbi__pngPhi, symObjAddr: 0xA1EC, symBinAddr: 0x10001EE9C, symSize: 0x1F4 }
  - { offsetInCU: 0x451C, offset: 0x2BD97, size: 0x8, addend: 0x0, symName: __ZL15stbi__de_iphoneP9stbi__png, symObjAddr: 0xA3E0, symBinAddr: 0x10001F090, symSize: 0x2BC }
  - { offsetInCU: 0x460A, offset: 0x2BE85, size: 0x8, addend: 0x0, symName: __ZL24stbi__expand_png_paletteP9stbi__pngPhii, symObjAddr: 0xA69C, symBinAddr: 0x10001F34C, symSize: 0x240 }
  - { offsetInCU: 0x46ED, offset: 0x2BF68, size: 0x8, addend: 0x0, symName: __ZL26stbi__create_png_image_rawP9stbi__pngPhjijjii, symObjAddr: 0xA8DC, symBinAddr: 0x10001F58C, symSize: 0x1A8C }
  - { offsetInCU: 0x4930, offset: 0x2C1AB, size: 0x8, addend: 0x0, symName: __ZL17stbi__malloc_mad3iiii, symObjAddr: 0xC3BC, symBinAddr: 0x10002106C, symSize: 0x88 }
  - { offsetInCU: 0x498C, offset: 0x2C207, size: 0x8, addend: 0x0, symName: __ZL21stbi__mad3sizes_validiiii, symObjAddr: 0xC444, symBinAddr: 0x1000210F4, symSize: 0xAC }
  - { offsetInCU: 0x49E8, offset: 0x2C263, size: 0x8, addend: 0x0, symName: __ZL11stbi__paethiii, symObjAddr: 0xC4F0, symBinAddr: 0x1000211A0, symSize: 0xE8 }
  - { offsetInCU: 0x4A71, offset: 0x2C2EC, size: 0x8, addend: 0x0, symName: __ZL21stbi__mul2sizes_validii, symObjAddr: 0xC5D8, symBinAddr: 0x100021288, symSize: 0x8C }
  - { offsetInCU: 0x4AAF, offset: 0x2C32A, size: 0x8, addend: 0x0, symName: __ZL20stbi__addsizes_validii, symObjAddr: 0xC664, symBinAddr: 0x100021314, symSize: 0x58 }
  - { offsetInCU: 0x4AED, offset: 0x2C368, size: 0x8, addend: 0x0, symName: __ZL17stbi__malloc_mad2iii, symObjAddr: 0xC6BC, symBinAddr: 0x10002136C, symSize: 0x78 }
  - { offsetInCU: 0x4B3A, offset: 0x2C3B5, size: 0x8, addend: 0x0, symName: __ZL21stbi__mad2sizes_validiii, symObjAddr: 0xC734, symBinAddr: 0x1000213E4, symSize: 0x74 }
  - { offsetInCU: 0x4B87, offset: 0x2C402, size: 0x8, addend: 0x0, symName: __ZL15stbi__compute_yiii, symObjAddr: 0xC7A8, symBinAddr: 0x100021458, symSize: 0x4C }
  - { offsetInCU: 0x4BD4, offset: 0x2C44F, size: 0x8, addend: 0x0, symName: __ZL18stbi__compute_y_16iii, symObjAddr: 0xC7F4, symBinAddr: 0x1000214A4, symSize: 0x4C }
  - { offsetInCU: 0x4C21, offset: 0x2C49C, size: 0x8, addend: 0x0, symName: __ZL18stbi__bmp_test_rawP13stbi__context, symObjAddr: 0xC840, symBinAddr: 0x1000214F0, symSize: 0x130 }
  - { offsetInCU: 0x4C6E, offset: 0x2C4E9, size: 0x8, addend: 0x0, symName: __ZL13stbi__get32leP13stbi__context, symObjAddr: 0xC970, symBinAddr: 0x100021620, symSize: 0x40 }
  - { offsetInCU: 0x4CAC, offset: 0x2C527, size: 0x8, addend: 0x0, symName: __ZL13stbi__get16leP13stbi__context, symObjAddr: 0xC9B0, symBinAddr: 0x100021660, symSize: 0x48 }
  - { offsetInCU: 0x4CEA, offset: 0x2C565, size: 0x8, addend: 0x0, symName: __ZL22stbi__bmp_parse_headerP13stbi__contextP14stbi__bmp_data, symObjAddr: 0xC9F8, symBinAddr: 0x1000216A8, symSize: 0x6B4 }
  - { offsetInCU: 0x4D73, offset: 0x2C5EE, size: 0x8, addend: 0x0, symName: __ZL14stbi__high_bitj, symObjAddr: 0xD0AC, symBinAddr: 0x100021D5C, symSize: 0x128 }
  - { offsetInCU: 0x4DB1, offset: 0x2C62C, size: 0x8, addend: 0x0, symName: __ZL14stbi__bitcountj, symObjAddr: 0xD1D4, symBinAddr: 0x100021E84, symSize: 0x80 }
  - { offsetInCU: 0x4DE0, offset: 0x2C65B, size: 0x8, addend: 0x0, symName: __ZL27stbi__bmp_set_mask_defaultsP14stbi__bmp_datai, symObjAddr: 0xD398, symBinAddr: 0x100022048, symSize: 0x11C }
  - { offsetInCU: 0x4E1E, offset: 0x2C699, size: 0x8, addend: 0x0, symName: __ZL18stbi__gif_test_rawP13stbi__context, symObjAddr: 0xD4B4, symBinAddr: 0x100022164, symSize: 0x108 }
  - { offsetInCU: 0x4E5C, offset: 0x2C6D7, size: 0x8, addend: 0x0, symName: __ZL19stbi__gif_load_nextP13stbi__contextP9stbi__gifPiiPh, symObjAddr: 0xD5BC, symBinAddr: 0x10002226C, symSize: 0xA60 }
  - { offsetInCU: 0x4FAC, offset: 0x2C827, size: 0x8, addend: 0x0, symName: __ZL16stbi__gif_headerP13stbi__contextP9stbi__gifPii, symObjAddr: 0xE01C, symBinAddr: 0x100022CCC, symSize: 0x24C }
  - { offsetInCU: 0x5017, offset: 0x2C892, size: 0x8, addend: 0x0, symName: __ZL26stbi__gif_parse_colortableP13stbi__contextPA4_hii, symObjAddr: 0xE268, symBinAddr: 0x100022F18, symSize: 0xD8 }
  - { offsetInCU: 0x507E, offset: 0x2C8F9, size: 0x8, addend: 0x0, symName: __ZL24stbi__process_gif_rasterP13stbi__contextP9stbi__gif, symObjAddr: 0xE340, symBinAddr: 0x100022FF0, symSize: 0x4E4 }
  - { offsetInCU: 0x518E, offset: 0x2CA09, size: 0x8, addend: 0x0, symName: __ZL18stbi__out_gif_codeP9stbi__gift, symObjAddr: 0xE824, symBinAddr: 0x1000234D4, symSize: 0x2B0 }
  - { offsetInCU: 0x51F5, offset: 0x2CA70, size: 0x8, addend: 0x0, symName: __ZL20stbi__psd_decode_rleP13stbi__contextPhi, symObjAddr: 0xEAD4, symBinAddr: 0x100023784, symSize: 0x1CC }
  - { offsetInCU: 0x528D, offset: 0x2CB08, size: 0x8, addend: 0x0, symName: __ZL19stbi__pic_test_coreP13stbi__context, symObjAddr: 0xECA0, symBinAddr: 0x100023950, symSize: 0xB4 }
  - { offsetInCU: 0x52CB, offset: 0x2CB46, size: 0x8, addend: 0x0, symName: __ZL13stbi__pic_is4P13stbi__contextPKc, symObjAddr: 0xED54, symBinAddr: 0x100023A04, symSize: 0x8C }
  - { offsetInCU: 0x5318, offset: 0x2CB93, size: 0x8, addend: 0x0, symName: __ZL12stbi__at_eofP13stbi__context, symObjAddr: 0xEDE0, symBinAddr: 0x100023A90, symSize: 0xB0 }
  - { offsetInCU: 0x5347, offset: 0x2CBC2, size: 0x8, addend: 0x0, symName: __ZL19stbi__pic_load_coreP13stbi__contextiiPiPh, symObjAddr: 0xEE90, symBinAddr: 0x100023B40, symSize: 0x708 }
  - { offsetInCU: 0x5546, offset: 0x2CDC1, size: 0x8, addend: 0x0, symName: __ZL13stbi__readvalP13stbi__contextiPh, symObjAddr: 0xF598, symBinAddr: 0x100024248, symSize: 0xEC }
  - { offsetInCU: 0x55B1, offset: 0x2CE2C, size: 0x8, addend: 0x0, symName: __ZL13stbi__copyvaliPhPKh, symObjAddr: 0xF684, symBinAddr: 0x100024334, symSize: 0x98 }
  - { offsetInCU: 0x5618, offset: 0x2CE93, size: 0x8, addend: 0x0, symName: __ZL16stbi__setup_jpegP10stbi__jpeg, symObjAddr: 0xF71C, symBinAddr: 0x1000243CC, symSize: 0x40 }
  - { offsetInCU: 0x5643, offset: 0x2CEBE, size: 0x8, addend: 0x0, symName: __ZL24stbi__decode_jpeg_headerP10stbi__jpegi, symObjAddr: 0xF75C, symBinAddr: 0x10002440C, symSize: 0x1FC }
  - { offsetInCU: 0x5690, offset: 0x2CF0B, size: 0x8, addend: 0x0, symName: __ZL16stbi__idct_blockPhiPs, symObjAddr: 0xF958, symBinAddr: 0x100024608, symSize: 0x8DC }
  - { offsetInCU: 0x58FE, offset: 0x2D179, size: 0x8, addend: 0x0, symName: __ZL22stbi__YCbCr_to_RGB_rowPhPKhS1_S1_ii, symObjAddr: 0x10234, symBinAddr: 0x100024EE4, symSize: 0x228 }
  - { offsetInCU: 0x59EE, offset: 0x2D269, size: 0x8, addend: 0x0, symName: __ZL23stbi__resample_row_hv_2PhS_S_ii, symObjAddr: 0x1045C, symBinAddr: 0x10002510C, symSize: 0x194 }
  - { offsetInCU: 0x5A86, offset: 0x2D301, size: 0x8, addend: 0x0, symName: __ZL11stbi__clampi, symObjAddr: 0x105F0, symBinAddr: 0x1000252A0, symSize: 0x74 }
  - { offsetInCU: 0x5AB5, offset: 0x2D330, size: 0x8, addend: 0x0, symName: __ZL16stbi__get_markerP10stbi__jpeg, symObjAddr: 0x10664, symBinAddr: 0x100025314, symSize: 0xD4 }
  - { offsetInCU: 0x5AF3, offset: 0x2D36E, size: 0x8, addend: 0x0, symName: __ZL19stbi__build_huffmanP13stbi__huffmanPi, symObjAddr: 0x11B98, symBinAddr: 0x100026848, symSize: 0x31C }
  - { offsetInCU: 0x5BB8, offset: 0x2D433, size: 0x8, addend: 0x0, symName: __ZL19stbi__build_fast_acPsP13stbi__huffman, symObjAddr: 0x11EB4, symBinAddr: 0x100026B64, symSize: 0x1C0 }
  - { offsetInCU: 0x5C97, offset: 0x2D512, size: 0x8, addend: 0x0, symName: __ZL26stbi__free_jpeg_componentsP10stbi__jpegii, symObjAddr: 0x12074, symBinAddr: 0x100026D24, symSize: 0x20C }
  - { offsetInCU: 0x5CF3, offset: 0x2D56E, size: 0x8, addend: 0x0, symName: __ZL15load_jpeg_imageP10stbi__jpegPiS1_S1_i, symObjAddr: 0x12280, symBinAddr: 0x100026F30, symSize: 0x10C8 }
  - { offsetInCU: 0x5F39, offset: 0x2D7B4, size: 0x8, addend: 0x0, symName: __ZL23stbi__decode_jpeg_imageP10stbi__jpeg, symObjAddr: 0x13348, symBinAddr: 0x100027FF8, symSize: 0x2C8 }
  - { offsetInCU: 0x5FC2, offset: 0x2D83D, size: 0x8, addend: 0x0, symName: __ZL18stbi__cleanup_jpegP10stbi__jpeg, symObjAddr: 0x13610, symBinAddr: 0x1000282C0, symSize: 0x34 }
  - { offsetInCU: 0x5FED, offset: 0x2D868, size: 0x8, addend: 0x0, symName: __ZL14resample_row_1PhS_S_ii, symObjAddr: 0x13644, symBinAddr: 0x1000282F4, symSize: 0x24 }
  - { offsetInCU: 0x6058, offset: 0x2D8D3, size: 0x8, addend: 0x0, symName: __ZL22stbi__resample_row_v_2PhS_S_ii, symObjAddr: 0x13668, symBinAddr: 0x100028318, symSize: 0x90 }
  - { offsetInCU: 0x60D2, offset: 0x2D94D, size: 0x8, addend: 0x0, symName: __ZL22stbi__resample_row_h_2PhS_S_ii, symObjAddr: 0x136F8, symBinAddr: 0x1000283A8, symSize: 0x1D8 }
  - { offsetInCU: 0x6179, offset: 0x2D9F4, size: 0x8, addend: 0x0, symName: __ZL26stbi__resample_row_genericPhS_S_ii, symObjAddr: 0x138D0, symBinAddr: 0x100028580, symSize: 0xBC }
  - { offsetInCU: 0x6202, offset: 0x2DA7D, size: 0x8, addend: 0x0, symName: __ZL15stbi__blinn_8x8hh, symObjAddr: 0x1398C, symBinAddr: 0x10002863C, symSize: 0x3C }
  - { offsetInCU: 0x624F, offset: 0x2DACA, size: 0x8, addend: 0x0, symName: __ZL25stbi__process_scan_headerP10stbi__jpeg, symObjAddr: 0x139C8, symBinAddr: 0x100028678, symSize: 0x4B4 }
  - { offsetInCU: 0x62F6, offset: 0x2DB71, size: 0x8, addend: 0x0, symName: __ZL30stbi__parse_entropy_coded_dataP10stbi__jpeg, symObjAddr: 0x13E7C, symBinAddr: 0x100028B2C, symSize: 0xD14 }
  - { offsetInCU: 0x65D1, offset: 0x2DE4C, size: 0x8, addend: 0x0, symName: __ZL17stbi__jpeg_finishP10stbi__jpeg, symObjAddr: 0x14B90, symBinAddr: 0x100029840, symSize: 0x23C }
  - { offsetInCU: 0x6683, offset: 0x2DEFE, size: 0x8, addend: 0x0, symName: __ZL16stbi__jpeg_resetP10stbi__jpeg, symObjAddr: 0x14DCC, symBinAddr: 0x100029A7C, symSize: 0xD8 }
  - { offsetInCU: 0x66AE, offset: 0x2DF29, size: 0x8, addend: 0x0, symName: __ZL23stbi__jpeg_decode_blockP10stbi__jpegPsP13stbi__huffmanS3_S1_iPt, symObjAddr: 0x14EA4, symBinAddr: 0x100029B54, symSize: 0x37C }
  - { offsetInCU: 0x67CA, offset: 0x2E045, size: 0x8, addend: 0x0, symName: __ZL24stbi__grow_buffer_unsafeP10stbi__jpeg, symObjAddr: 0x15220, symBinAddr: 0x100029ED0, symSize: 0x164 }
  - { offsetInCU: 0x6828, offset: 0x2E0A3, size: 0x8, addend: 0x0, symName: __ZL31stbi__jpeg_decode_block_prog_dcP10stbi__jpegPsP13stbi__huffmani, symObjAddr: 0x15384, symBinAddr: 0x10002A034, symSize: 0x1F8 }
  - { offsetInCU: 0x68B1, offset: 0x2E12C, size: 0x8, addend: 0x0, symName: __ZL31stbi__jpeg_decode_block_prog_acP10stbi__jpegPsP13stbi__huffmanS1_, symObjAddr: 0x1557C, symBinAddr: 0x10002A22C, symSize: 0x778 }
  - { offsetInCU: 0x6A15, offset: 0x2E290, size: 0x8, addend: 0x0, symName: __ZL22stbi__jpeg_huff_decodeP10stbi__jpegP13stbi__huffman, symObjAddr: 0x15CF4, symBinAddr: 0x10002A9A4, symSize: 0x2EC }
  - { offsetInCU: 0x6A9E, offset: 0x2E319, size: 0x8, addend: 0x0, symName: __ZL20stbi__extend_receiveP10stbi__jpegi, symObjAddr: 0x15FE0, symBinAddr: 0x10002AC90, symSize: 0x108 }
  - { offsetInCU: 0x6AFA, offset: 0x2E375, size: 0x8, addend: 0x0, symName: __ZL18stbi__jpeg_get_bitP10stbi__jpeg, symObjAddr: 0x160E8, symBinAddr: 0x10002AD98, symSize: 0x88 }
  - { offsetInCU: 0x6B38, offset: 0x2E3B3, size: 0x8, addend: 0x0, symName: __ZL19stbi__jpeg_get_bitsP10stbi__jpegi, symObjAddr: 0x16170, symBinAddr: 0x10002AE20, symSize: 0xD8 }
  - { offsetInCU: 0x6B85, offset: 0x2E400, size: 0x8, addend: 0x0, symName: __ZL21stbi__jpeg_dequantizePsPt, symObjAddr: 0x16248, symBinAddr: 0x10002AEF8, symSize: 0x68 }
  - { offsetInCU: 0x6BCE, offset: 0x2E449, size: 0x8, addend: 0x0, symName: __ZL14stbi__pnm_infoP13stbi__contextPiS1_S1_, symObjAddr: 0x162B0, symBinAddr: 0x10002AF60, symSize: 0x1DC }
  - { offsetInCU: 0x6C75, offset: 0x2E4F0, size: 0x8, addend: 0x0, symName: __ZL21stbi__mad4sizes_validiiiii, symObjAddr: 0x1648C, symBinAddr: 0x10002B13C, symSize: 0xEC }
  - { offsetInCU: 0x6CE0, offset: 0x2E55B, size: 0x8, addend: 0x0, symName: __ZL17stbi__malloc_mad4iiiii, symObjAddr: 0x16578, symBinAddr: 0x10002B228, symSize: 0x98 }
  - { offsetInCU: 0x6D4B, offset: 0x2E5C6, size: 0x8, addend: 0x0, symName: __ZL25stbi__pnm_skip_whitespaceP13stbi__contextPc, symObjAddr: 0x16610, symBinAddr: 0x10002B2C0, symSize: 0x138 }
  - { offsetInCU: 0x6D85, offset: 0x2E600, size: 0x8, addend: 0x0, symName: __ZL20stbi__pnm_getintegerP13stbi__contextPc, symObjAddr: 0x16748, symBinAddr: 0x10002B3F8, symSize: 0xA8 }
  - { offsetInCU: 0x6DD2, offset: 0x2E64D, size: 0x8, addend: 0x0, symName: __ZL17stbi__pnm_isspacec, symObjAddr: 0x167F0, symBinAddr: 0x10002B4A0, symSize: 0xB8 }
  - { offsetInCU: 0x6E01, offset: 0x2E67C, size: 0x8, addend: 0x0, symName: __ZL17stbi__pnm_isdigitc, symObjAddr: 0x168A8, symBinAddr: 0x10002B558, symSize: 0x48 }
  - { offsetInCU: 0x6E30, offset: 0x2E6AB, size: 0x8, addend: 0x0, symName: __ZL18stbi__hdr_gettokenP13stbi__contextPc, symObjAddr: 0x168F0, symBinAddr: 0x10002B5A0, symSize: 0x124 }
  - { offsetInCU: 0x6E8C, offset: 0x2E707, size: 0x8, addend: 0x0, symName: __ZL17stbi__hdr_convertPfPhi, symObjAddr: 0x16A14, symBinAddr: 0x10002B6C4, symSize: 0x1D4 }
  - { offsetInCU: 0x6EF3, offset: 0x2E76E, size: 0x8, addend: 0x0, symName: __Z5ldexpB7v160006fi, symObjAddr: 0x16BF8, symBinAddr: 0x10002B8A8, symSize: 0x2C }
  - { offsetInCU: 0x6F30, offset: 0x2E7AB, size: 0x8, addend: 0x0, symName: __Z3powB7v160006ff, symObjAddr: 0x16C24, symBinAddr: 0x10002B8D4, symSize: 0x2C }
  - { offsetInCU: 0x6F6D, offset: 0x2E7E8, size: 0x8, addend: 0x0, symName: __ZL18stbi__tga_get_compiiPi, symObjAddr: 0x16C50, symBinAddr: 0x10002B900, symSize: 0xEC }
  - { offsetInCU: 0x6FBA, offset: 0x2E835, size: 0x8, addend: 0x0, symName: __ZL20stbi__tga_read_rgb16P13stbi__contextPh, symObjAddr: 0x16DA0, symBinAddr: 0x10002BA50, symSize: 0xA8 }
  - { offsetInCU: 0x703F, offset: 0x2E8BA, size: 0x8, addend: 0x0, symName: __ZL21stbi__convert_8_to_16Phiii, symObjAddr: 0x16E48, symBinAddr: 0x10002BAF8, symSize: 0x10C }
  - { offsetInCU: 0x70C8, offset: 0x2E943, size: 0x8, addend: 0x0, symName: __ZL23stbi__float_postprocessPfPiS0_S0_i, symObjAddr: 0x16F54, symBinAddr: 0x10002BC04, symSize: 0xE0 }
  - { offsetInCU: 0x714D, offset: 0x2E9C8, size: 0x8, addend: 0x0, symName: __ZL16stbi__ldr_to_hdrPhiii, symObjAddr: 0x17034, symBinAddr: 0x10002BCE4, symSize: 0x260 }
  - { offsetInCU: 0x71E5, offset: 0x2EA60, size: 0x8, addend: 0x0, symName: __ZL16stbi__parse_zlibP10stbi__zbufi, symObjAddr: 0x17294, symBinAddr: 0x10002BF44, symSize: 0x1CC }
  - { offsetInCU: 0x7241, offset: 0x2EABC, size: 0x8, addend: 0x0, symName: __ZL23stbi__parse_zlib_headerP10stbi__zbuf, symObjAddr: 0x17460, symBinAddr: 0x10002C110, symSize: 0x114 }
  - { offsetInCU: 0x729D, offset: 0x2EB18, size: 0x8, addend: 0x0, symName: __ZL14stbi__zreceiveP10stbi__zbufi, symObjAddr: 0x17574, symBinAddr: 0x10002C224, symSize: 0x94 }
  - { offsetInCU: 0x72EA, offset: 0x2EB65, size: 0x8, addend: 0x0, symName: __ZL30stbi__parse_uncompressed_blockP10stbi__zbuf, symObjAddr: 0x17608, symBinAddr: 0x10002C2B8, symSize: 0x24C }
  - { offsetInCU: 0x7355, offset: 0x2EBD0, size: 0x8, addend: 0x0, symName: __ZL20stbi__zbuild_huffmanP14stbi__zhuffmanPKhi, symObjAddr: 0x17854, symBinAddr: 0x10002C504, symSize: 0x3E8 }
  - { offsetInCU: 0x7458, offset: 0x2ECD3, size: 0x8, addend: 0x0, symName: __ZL25stbi__parse_huffman_blockP10stbi__zbuf, symObjAddr: 0x1800C, symBinAddr: 0x10002CCBC, symSize: 0x398 }
  - { offsetInCU: 0x750E, offset: 0x2ED89, size: 0x8, addend: 0x0, symName: __ZL11stbi__zget8P10stbi__zbuf, symObjAddr: 0x183A4, symBinAddr: 0x10002D054, symSize: 0x64 }
  - { offsetInCU: 0x753D, offset: 0x2EDB8, size: 0x8, addend: 0x0, symName: __ZL10stbi__zeofP10stbi__zbuf, symObjAddr: 0x18408, symBinAddr: 0x10002D0B8, symSize: 0x2C }
  - { offsetInCU: 0x756C, offset: 0x2EDE7, size: 0x8, addend: 0x0, symName: __ZL15stbi__fill_bitsP10stbi__zbuf, symObjAddr: 0x18434, symBinAddr: 0x10002D0E4, symSize: 0xB0 }
  - { offsetInCU: 0x7597, offset: 0x2EE12, size: 0x8, addend: 0x0, symName: __ZL13stbi__zexpandP10stbi__zbufPci, symObjAddr: 0x184E4, symBinAddr: 0x10002D194, symSize: 0x1AC }
  - { offsetInCU: 0x7620, offset: 0x2EE9B, size: 0x8, addend: 0x0, symName: __ZL17stbi__bit_reverseii, symObjAddr: 0x18690, symBinAddr: 0x10002D340, symSize: 0x70 }
  - { offsetInCU: 0x765E, offset: 0x2EED9, size: 0x8, addend: 0x0, symName: __ZL18stbi__bitreverse16i, symObjAddr: 0x18700, symBinAddr: 0x10002D3B0, symSize: 0x98 }
  - { offsetInCU: 0x768D, offset: 0x2EF08, size: 0x8, addend: 0x0, symName: __ZL21stbi__zhuffman_decodeP10stbi__zbufP14stbi__zhuffman, symObjAddr: 0x18798, symBinAddr: 0x10002D448, symSize: 0xF0 }
  - { offsetInCU: 0x76E9, offset: 0x2EF64, size: 0x8, addend: 0x0, symName: __ZL30stbi__zhuffman_decode_slowpathP10stbi__zbufP14stbi__zhuffman, symObjAddr: 0x18888, symBinAddr: 0x10002D538, symSize: 0x170 }
  - { offsetInCU: 0x7754, offset: 0x2EFCF, size: 0x8, addend: 0x0, symName: __ZL28stbi__load_gif_main_outofmemP9stbi__gifPhPPi, symObjAddr: 0x189F8, symBinAddr: 0x10002D6A8, symSize: 0xC8 }
  - { offsetInCU: 0x77A1, offset: 0x2F01C, size: 0x8, addend: 0x0, symName: __ZL19stbi__hdr_test_coreP13stbi__contextPKc, symObjAddr: 0x18AC0, symBinAddr: 0x10002D770, symSize: 0xA0 }
  - { offsetInCU: 0x77EE, offset: 0x2F069, size: 0x8, addend: 0x0, symName: __ZL15stbi__jpeg_infoP13stbi__contextPiS1_S1_, symObjAddr: 0x18B60, symBinAddr: 0x10002D810, symSize: 0x98 }
  - { offsetInCU: 0x7868, offset: 0x2F0E3, size: 0x8, addend: 0x0, symName: __ZL14stbi__png_infoP13stbi__contextPiS1_S1_, symObjAddr: 0x18BF8, symBinAddr: 0x10002D8A8, symSize: 0x44 }
  - { offsetInCU: 0x78D3, offset: 0x2F14E, size: 0x8, addend: 0x0, symName: __ZL14stbi__gif_infoP13stbi__contextPiS1_S1_, symObjAddr: 0x18C3C, symBinAddr: 0x10002D8EC, symSize: 0x3C }
  - { offsetInCU: 0x792F, offset: 0x2F1AA, size: 0x8, addend: 0x0, symName: __ZL14stbi__bmp_infoP13stbi__contextPiS1_S1_, symObjAddr: 0x18C78, symBinAddr: 0x10002D928, symSize: 0x144 }
  - { offsetInCU: 0x79A9, offset: 0x2F224, size: 0x8, addend: 0x0, symName: __ZL14stbi__psd_infoP13stbi__contextPiS1_S1_, symObjAddr: 0x18DBC, symBinAddr: 0x10002DA6C, symSize: 0x1D8 }
  - { offsetInCU: 0x7A32, offset: 0x2F2AD, size: 0x8, addend: 0x0, symName: __ZL14stbi__pic_infoP13stbi__contextPiS1_S1_, symObjAddr: 0x18F94, symBinAddr: 0x10002DC44, symSize: 0x2E4 }
  - { offsetInCU: 0x7AEE, offset: 0x2F369, size: 0x8, addend: 0x0, symName: __ZL14stbi__hdr_infoP13stbi__contextPiS1_S1_, symObjAddr: 0x19278, symBinAddr: 0x10002DF28, symSize: 0x28C }
  - { offsetInCU: 0x7B87, offset: 0x2F402, size: 0x8, addend: 0x0, symName: __ZL14stbi__tga_infoP13stbi__contextPiS1_S1_, symObjAddr: 0x19504, symBinAddr: 0x10002E1B4, symSize: 0x3AC }
  - { offsetInCU: 0x7C5B, offset: 0x2F4D6, size: 0x8, addend: 0x0, symName: __ZL19stbi__jpeg_info_rawP10stbi__jpegPiS1_S1_, symObjAddr: 0x198B0, symBinAddr: 0x10002E560, symSize: 0x104 }
  - { offsetInCU: 0x7CB7, offset: 0x2F532, size: 0x8, addend: 0x0, symName: __ZL18stbi__png_info_rawP9stbi__pngPiS1_S1_, symObjAddr: 0x199B4, symBinAddr: 0x10002E664, symSize: 0xF0 }
  - { offsetInCU: 0x7D13, offset: 0x2F58E, size: 0x8, addend: 0x0, symName: __ZL18stbi__gif_info_rawP13stbi__contextPiS1_S1_, symObjAddr: 0x19AA4, symBinAddr: 0x10002E754, symSize: 0x100 }
  - { offsetInCU: 0x7D7E, offset: 0x2F5F9, size: 0x8, addend: 0x0, symName: __ZL14stbi__png_is16P13stbi__context, symObjAddr: 0x19BA4, symBinAddr: 0x10002E854, symSize: 0x84 }
  - { offsetInCU: 0x7DBC, offset: 0x2F637, size: 0x8, addend: 0x0, symName: __ZL14stbi__psd_is16P13stbi__context, symObjAddr: 0x19C28, symBinAddr: 0x10002E8D8, symSize: 0x104 }
  - { offsetInCU: 0x7E09, offset: 0x2F684, size: 0x8, addend: 0x0, symName: __ZL14stbi__pnm_is16P13stbi__context, symObjAddr: 0x19D2C, symBinAddr: 0x10002E9DC, symSize: 0x58 }
  - { offsetInCU: 0x3F, offset: 0x2FB61, size: 0x8, addend: 0x0, symName: _mainWindow, symObjAddr: 0x5BBD8, symBinAddr: 0x1000401A0, symSize: 0x0 }
  - { offsetInCU: 0x19A, offset: 0x2FCBC, size: 0x8, addend: 0x0, symName: _meshList, symObjAddr: 0x5BBF8, symBinAddr: 0x1000401C0, symSize: 0x0 }
  - { offsetInCU: 0x968E, offset: 0x391B0, size: 0x8, addend: 0x0, symName: __ZNSt3__1neB7v160006IPNS_12basic_stringIcNS_11char_traitsIcEENS_9allocatorIcEEEEEEbRKNS_11__wrap_iterIT_EESC_, symObjAddr: 0xBD0, symBinAddr: 0x10002F4F8, symSize: 0x34 }
  - { offsetInCU: 0x96D1, offset: 0x391F3, size: 0x8, addend: 0x0, symName: __ZNSt3__1lsB7v160006IcNS_11char_traitsIcEENS_9allocatorIcEEEERNS_13basic_ostreamIT_T0_EES9_RKNS_12basic_stringIS6_S7_T1_EE, symObjAddr: 0x17D0, symBinAddr: 0x100030088, symSize: 0x4C }
  - { offsetInCU: 0x9729, offset: 0x3924B, size: 0x8, addend: 0x0, symName: __ZNSt3__119__debug_db_insert_cB7v160006INS_6vectorIP4MeshNS_9allocatorIS3_EEEEEEvPT_, symObjAddr: 0x3198, symBinAddr: 0x1000319F8, symSize: 0x10 }
  - { offsetInCU: 0x975A, offset: 0x3927C, size: 0x8, addend: 0x0, symName: __ZNSt3__118__debug_db_erase_cB7v160006INS_6vectorIP4MeshNS_9allocatorIS3_EEEEEEvPT_, symObjAddr: 0x3454, symBinAddr: 0x100031CB4, symSize: 0x10 }
  - { offsetInCU: 0x978B, offset: 0x392AD, size: 0x8, addend: 0x0, symName: __ZNSt3__112__to_addressB7v160006IP4MeshEEPT_S4_, symObjAddr: 0x3598, symBinAddr: 0x100031DF8, symSize: 0x14 }
  - { offsetInCU: 0x97C0, offset: 0x392E2, size: 0x8, addend: 0x0, symName: __ZNSt3__119__debug_db_insert_cB7v160006INS_6vectorIP6ShaderNS_9allocatorIS3_EEEEEEvPT_, symObjAddr: 0x38A4, symBinAddr: 0x10003207C, symSize: 0x10 }
  - { offsetInCU: 0x97F1, offset: 0x39313, size: 0x8, addend: 0x0, symName: __ZNSt3__118__debug_db_erase_cB7v160006INS_6vectorIP6ShaderNS_9allocatorIS3_EEEEEEvPT_, symObjAddr: 0x3B60, symBinAddr: 0x100032338, symSize: 0x10 }
  - { offsetInCU: 0x9822, offset: 0x39344, size: 0x8, addend: 0x0, symName: __ZNSt3__112__to_addressB7v160006IP6ShaderEEPT_S4_, symObjAddr: 0x3CA4, symBinAddr: 0x10003247C, symSize: 0x14 }
  - { offsetInCU: 0x9857, offset: 0x39379, size: 0x8, addend: 0x0, symName: __ZNSt3__119__debug_db_insert_cB7v160006INS_6vectorINS_12basic_stringIcNS_11char_traitsIcEENS_9allocatorIcEEEENS5_IS7_EEEEEEvPT_, symObjAddr: 0x3FA4, symBinAddr: 0x10003277C, symSize: 0x10 }
  - { offsetInCU: 0x9888, offset: 0x393AA, size: 0x8, addend: 0x0, symName: __ZNSt3__118__debug_db_erase_cB7v160006INS_6vectorINS_12basic_stringIcNS_11char_traitsIcEENS_9allocatorIcEEEENS5_IS7_EEEEEEvPT_, symObjAddr: 0x427C, symBinAddr: 0x100032A54, symSize: 0x10 }
  - { offsetInCU: 0x98B9, offset: 0x393DB, size: 0x8, addend: 0x0, symName: __ZNSt3__112__to_addressB7v160006INS_12basic_stringIcNS_11char_traitsIcEENS_9allocatorIcEEEEEEPT_S8_, symObjAddr: 0x4398, symBinAddr: 0x100032B70, symSize: 0x14 }
  - { offsetInCU: 0x98EE, offset: 0x39410, size: 0x8, addend: 0x0, symName: __ZNSt3__119__allocate_at_leastB7v160006INS_9allocatorINS_12basic_stringIcNS_11char_traitsIcEENS1_IcEEEEEEEENS_19__allocation_resultINS_16allocator_traitsIT_E7pointerEEERSA_m, symObjAddr: 0x4F74, symBinAddr: 0x100033518, symSize: 0x40 }
  - { offsetInCU: 0x9931, offset: 0x39453, size: 0x8, addend: 0x0, symName: __ZNSt3__142__uninitialized_allocator_move_if_noexceptB7v160006INS_9allocatorINS_12basic_stringIcNS_11char_traitsIcEENS1_IcEEEEEENS_16reverse_iteratorIPS6_EESA_SA_EET2_RT_T0_T1_SB_, symObjAddr: 0x51DC, symBinAddr: 0x100033700, symSize: 0x134 }
  - { offsetInCU: 0x99D1, offset: 0x394F3, size: 0x8, addend: 0x0, symName: __ZNSt3__14swapB7v160006IPNS_12basic_stringIcNS_11char_traitsIcEENS_9allocatorIcEEEEEEvRT_S9_, symObjAddr: 0x535C, symBinAddr: 0x100033880, symSize: 0x3C }
  - { offsetInCU: 0x9A22, offset: 0x39544, size: 0x8, addend: 0x0, symName: __ZNSt3__125__debug_db_invalidate_allB7v160006INS_6vectorINS_12basic_stringIcNS_11char_traitsIcEENS_9allocatorIcEEEENS5_IS7_EEEEEEvPT_, symObjAddr: 0x5460, symBinAddr: 0x100033984, symSize: 0x10 }
  - { offsetInCU: 0x9A53, offset: 0x39575, size: 0x8, addend: 0x0, symName: __ZNSt3__122__make_exception_guardB7v160006INS_29_AllocatorDestroyRangeReverseINS_9allocatorINS_12basic_stringIcNS_11char_traitsIcEENS2_IcEEEEEENS_16reverse_iteratorIPS7_EEEEEENS_28__exception_guard_exceptionsIT_EESE_, symObjAddr: 0x5470, symBinAddr: 0x100033994, symSize: 0x4C }
  - { offsetInCU: 0x9A89, offset: 0x395AB, size: 0x8, addend: 0x0, symName: __ZNSt3__1neB7v160006IPNS_12basic_stringIcNS_11char_traitsIcEENS_9allocatorIcEEEES7_EEbRKNS_16reverse_iteratorIT_EERKNS8_IT0_EE, symObjAddr: 0x5500, symBinAddr: 0x100033A24, symSize: 0x48 }
  - { offsetInCU: 0x9AD5, offset: 0x395F7, size: 0x8, addend: 0x0, symName: __ZNSt3__112__to_addressB7v160006INS_16reverse_iteratorIPNS_12basic_stringIcNS_11char_traitsIcEENS_9allocatorIcEEEEEEvEENS_5decayIDTclsr19__to_address_helperIT_EE6__callclsr3stdE7declvalIRKSB_EEEEE4typeESD_, symObjAddr: 0x557C, symBinAddr: 0x100033AA0, symSize: 0x24 }
  - { offsetInCU: 0x9B34, offset: 0x39656, size: 0x8, addend: 0x0, symName: __ZNSt3__119__allocator_destroyB7v160006INS_9allocatorINS_12basic_stringIcNS_11char_traitsIcEENS1_IcEEEEEENS_16reverse_iteratorINS8_IPS6_EEEESB_EEvRT_T0_T1_, symObjAddr: 0x5868, symBinAddr: 0x100033D8C, symSize: 0x70 }
  - { offsetInCU: 0x9B99, offset: 0x396BB, size: 0x8, addend: 0x0, symName: __ZNSt3__1neB7v160006INS_16reverse_iteratorIPNS_12basic_stringIcNS_11char_traitsIcEENS_9allocatorIcEEEEEES9_EEbRKNS1_IT_EERKNS1_IT0_EE, symObjAddr: 0x5914, symBinAddr: 0x100033E38, symSize: 0x60 }
  - { offsetInCU: 0x9BE5, offset: 0x39707, size: 0x8, addend: 0x0, symName: __ZNSt3__112__to_addressB7v160006INS_16reverse_iteratorINS1_IPNS_12basic_stringIcNS_11char_traitsIcEENS_9allocatorIcEEEEEEEEvEENS_5decayIDTclsr19__to_address_helperIT_EE6__callclsr3stdE7declvalIRKSC_EEEEE4typeESE_, symObjAddr: 0x5974, symBinAddr: 0x100033E98, symSize: 0x24 }
  - { offsetInCU: 0x9C44, offset: 0x39766, size: 0x8, addend: 0x0, symName: __ZNSt3__1eqB7v160006IPNS_12basic_stringIcNS_11char_traitsIcEENS_9allocatorIcEEEEEEbRKNS_11__wrap_iterIT_EESC_, symObjAddr: 0x6960, symBinAddr: 0x1000342B0, symSize: 0x48 }
  - { offsetInCU: 0x9C87, offset: 0x397A9, size: 0x8, addend: 0x0, symName: __ZNSt3__119__allocate_at_leastB7v160006INS_9allocatorIP4MeshEEEENS_19__allocation_resultINS_16allocator_traitsIT_E7pointerEEERS7_m, symObjAddr: 0x7134, symBinAddr: 0x100034A84, symSize: 0x40 }
  - { offsetInCU: 0x9CCA, offset: 0x397EC, size: 0x8, addend: 0x0, symName: __ZNSt3__142__uninitialized_allocator_move_if_noexceptB7v160006INS_9allocatorIP4MeshEENS_16reverse_iteratorIPS3_EES7_S3_vEET1_RT_T0_SB_S8_, symObjAddr: 0x7314, symBinAddr: 0x100034C64, symSize: 0xE8 }
  - { offsetInCU: 0x9D47, offset: 0x39869, size: 0x8, addend: 0x0, symName: __ZNSt3__14swapB7v160006IPP4MeshEEvRT_S5_, symObjAddr: 0x7448, symBinAddr: 0x100034D98, symSize: 0x3C }
  - { offsetInCU: 0x9D98, offset: 0x398BA, size: 0x8, addend: 0x0, symName: __ZNSt3__125__debug_db_invalidate_allB7v160006INS_6vectorIP4MeshNS_9allocatorIS3_EEEEEEvPT_, symObjAddr: 0x7530, symBinAddr: 0x100034E80, symSize: 0x10 }
  - { offsetInCU: 0x9DC9, offset: 0x398EB, size: 0x8, addend: 0x0, symName: __ZNSt3__1neB7v160006IPP4MeshS3_EEbRKNS_16reverse_iteratorIT_EERKNS4_IT0_EE, symObjAddr: 0x7540, symBinAddr: 0x100034E90, symSize: 0x48 }
  - { offsetInCU: 0x9E3A, offset: 0x3995C, size: 0x8, addend: 0x0, symName: __ZNSt3__114__construct_atB7v160006IP4MeshJS2_EPS2_EEPT_S5_DpOT0_, symObjAddr: 0x7588, symBinAddr: 0x100034ED8, symSize: 0x2C }
  - { offsetInCU: 0x9EAA, offset: 0x399CC, size: 0x8, addend: 0x0, symName: __ZNSt3__112__to_addressB7v160006INS_16reverse_iteratorIPP4MeshEEvEENS_5decayIDTclsr19__to_address_helperIT_EE6__callclsr3stdE7declvalIRKS7_EEEEE4typeES9_, symObjAddr: 0x75B4, symBinAddr: 0x100034F04, symSize: 0x24 }
  - { offsetInCU: 0x9EE0, offset: 0x39A02, size: 0x8, addend: 0x0, symName: __ZNSt3__14moveB7v160006INS_16reverse_iteratorIPP4MeshEES5_EET0_T_S7_S6_, symObjAddr: 0x7620, symBinAddr: 0x100034F70, symSize: 0x78 }
  - { offsetInCU: 0x9F63, offset: 0x39A85, size: 0x8, addend: 0x0, symName: __ZNSt3__16__moveB7v160006INS_17_ClassicAlgPolicyENS_16reverse_iteratorIPP4MeshEES6_S6_EENS_4pairIT0_T2_EES8_T1_S9_, symObjAddr: 0x7708, symBinAddr: 0x100035058, symSize: 0x64 }
  - { offsetInCU: 0x9FCF, offset: 0x39AF1, size: 0x8, addend: 0x0, symName: __ZNSt3__123__dispatch_copy_or_moveB7v160006INS_17_ClassicAlgPolicyENS_11__move_loopIS1_EENS_14__move_trivialENS_16reverse_iteratorIPP4MeshEES9_S9_EENS_4pairIT2_T4_EESB_T3_SC_, symObjAddr: 0x776C, symBinAddr: 0x1000350BC, symSize: 0x7C }
  - { offsetInCU: 0xA04D, offset: 0x39B6F, size: 0x8, addend: 0x0, symName: __ZNSt3__121__unwrap_and_dispatchB7v160006INS_10__overloadINS_11__move_loopINS_17_ClassicAlgPolicyEEENS_14__move_trivialEEENS_16reverse_iteratorIPP4MeshEESB_SB_Li0EEENS_4pairIT0_T2_EESD_T1_SE_, symObjAddr: 0x77E8, symBinAddr: 0x100035138, symSize: 0x12C }
  - { offsetInCU: 0xA0DD, offset: 0x39BFF, size: 0x8, addend: 0x0, symName: __ZNSt3__114__unwrap_rangeB7v160006INS_16reverse_iteratorIPP4MeshEES5_EENS_4pairIT0_S7_EET_S9_, symObjAddr: 0x7914, symBinAddr: 0x100035264, symSize: 0x84 }
  - { offsetInCU: 0xA267, offset: 0x39D89, size: 0x8, addend: 0x0, symName: __ZNSt3__113__unwrap_iterB7v160006INS_16reverse_iteratorIPP4MeshEENS_18__unwrap_iter_implIS5_Lb0EEELi0EEEDTclsrT0_8__unwrapclsr3stdE7declvalIT_EEEES9_, symObjAddr: 0x7A38, symBinAddr: 0x100035388, symSize: 0x44 }
  - { offsetInCU: 0xA2AB, offset: 0x39DCD, size: 0x8, addend: 0x0, symName: __ZNSt3__19make_pairB7v160006INS_16reverse_iteratorIPP4MeshEES5_EENS_4pairINS_18__unwrap_ref_decayIT_E4typeENS7_IT0_E4typeEEEOS8_OSB_, symObjAddr: 0x7A7C, symBinAddr: 0x1000353CC, symSize: 0x38 }
  - { offsetInCU: 0xA2FA, offset: 0x39E1C, size: 0x8, addend: 0x0, symName: __ZNSt3__114__rewrap_rangeB7v160006INS_16reverse_iteratorIPP4MeshEES5_EET_S6_T0_, symObjAddr: 0x7AB4, symBinAddr: 0x100035404, symSize: 0x5C }
  - { offsetInCU: 0xA346, offset: 0x39E68, size: 0x8, addend: 0x0, symName: __ZNSt3__113__rewrap_iterB7v160006INS_16reverse_iteratorIPP4MeshEES5_NS_18__unwrap_iter_implIS5_Lb0EEEEET_S8_T0_, symObjAddr: 0x7B10, symBinAddr: 0x100035460, symSize: 0x88 }
  - { offsetInCU: 0xA480, offset: 0x39FA2, size: 0x8, addend: 0x0, symName: __ZNSt3__119__allocate_at_leastB7v160006INS_9allocatorIP6ShaderEEEENS_19__allocation_resultINS_16allocator_traitsIT_E7pointerEEERS7_m, symObjAddr: 0x8614, symBinAddr: 0x100035F64, symSize: 0x40 }
  - { offsetInCU: 0xA4C3, offset: 0x39FE5, size: 0x8, addend: 0x0, symName: __ZNSt3__142__uninitialized_allocator_move_if_noexceptB7v160006INS_9allocatorIP6ShaderEENS_16reverse_iteratorIPS3_EES7_S3_vEET1_RT_T0_SB_S8_, symObjAddr: 0x87F4, symBinAddr: 0x100036144, symSize: 0xE8 }
  - { offsetInCU: 0xA540, offset: 0x3A062, size: 0x8, addend: 0x0, symName: __ZNSt3__14swapB7v160006IPP6ShaderEEvRT_S5_, symObjAddr: 0x8928, symBinAddr: 0x100036278, symSize: 0x3C }
  - { offsetInCU: 0xA591, offset: 0x3A0B3, size: 0x8, addend: 0x0, symName: __ZNSt3__125__debug_db_invalidate_allB7v160006INS_6vectorIP6ShaderNS_9allocatorIS3_EEEEEEvPT_, symObjAddr: 0x8A10, symBinAddr: 0x100036360, symSize: 0x10 }
  - { offsetInCU: 0xA5C2, offset: 0x3A0E4, size: 0x8, addend: 0x0, symName: __ZNSt3__1neB7v160006IPP6ShaderS3_EEbRKNS_16reverse_iteratorIT_EERKNS4_IT0_EE, symObjAddr: 0x8A20, symBinAddr: 0x100036370, symSize: 0x48 }
  - { offsetInCU: 0xA633, offset: 0x3A155, size: 0x8, addend: 0x0, symName: __ZNSt3__114__construct_atB7v160006IP6ShaderJS2_EPS2_EEPT_S5_DpOT0_, symObjAddr: 0x8A68, symBinAddr: 0x1000363B8, symSize: 0x2C }
  - { offsetInCU: 0xA6A3, offset: 0x3A1C5, size: 0x8, addend: 0x0, symName: __ZNSt3__112__to_addressB7v160006INS_16reverse_iteratorIPP6ShaderEEvEENS_5decayIDTclsr19__to_address_helperIT_EE6__callclsr3stdE7declvalIRKS7_EEEEE4typeES9_, symObjAddr: 0x8A94, symBinAddr: 0x1000363E4, symSize: 0x24 }
  - { offsetInCU: 0xA6D9, offset: 0x3A1FB, size: 0x8, addend: 0x0, symName: __ZNSt3__14moveB7v160006INS_16reverse_iteratorIPP6ShaderEES5_EET0_T_S7_S6_, symObjAddr: 0x8B00, symBinAddr: 0x100036450, symSize: 0x78 }
  - { offsetInCU: 0xA75C, offset: 0x3A27E, size: 0x8, addend: 0x0, symName: __ZNSt3__16__moveB7v160006INS_17_ClassicAlgPolicyENS_16reverse_iteratorIPP6ShaderEES6_S6_EENS_4pairIT0_T2_EES8_T1_S9_, symObjAddr: 0x8BE8, symBinAddr: 0x100036538, symSize: 0x64 }
  - { offsetInCU: 0xA7C8, offset: 0x3A2EA, size: 0x8, addend: 0x0, symName: __ZNSt3__123__dispatch_copy_or_moveB7v160006INS_17_ClassicAlgPolicyENS_11__move_loopIS1_EENS_14__move_trivialENS_16reverse_iteratorIPP6ShaderEES9_S9_EENS_4pairIT2_T4_EESB_T3_SC_, symObjAddr: 0x8C4C, symBinAddr: 0x10003659C, symSize: 0x7C }
  - { offsetInCU: 0xA846, offset: 0x3A368, size: 0x8, addend: 0x0, symName: __ZNSt3__121__unwrap_and_dispatchB7v160006INS_10__overloadINS_11__move_loopINS_17_ClassicAlgPolicyEEENS_14__move_trivialEEENS_16reverse_iteratorIPP6ShaderEESB_SB_Li0EEENS_4pairIT0_T2_EESD_T1_SE_, symObjAddr: 0x8CC8, symBinAddr: 0x100036618, symSize: 0x12C }
  - { offsetInCU: 0xA8D6, offset: 0x3A3F8, size: 0x8, addend: 0x0, symName: __ZNSt3__114__unwrap_rangeB7v160006INS_16reverse_iteratorIPP6ShaderEES5_EENS_4pairIT0_S7_EET_S9_, symObjAddr: 0x8DF4, symBinAddr: 0x100036744, symSize: 0x84 }
  - { offsetInCU: 0xA9CF, offset: 0x3A4F1, size: 0x8, addend: 0x0, symName: __ZNSt3__113__unwrap_iterB7v160006INS_16reverse_iteratorIPP6ShaderEENS_18__unwrap_iter_implIS5_Lb0EEELi0EEEDTclsrT0_8__unwrapclsr3stdE7declvalIT_EEEES9_, symObjAddr: 0x8F18, symBinAddr: 0x100036868, symSize: 0x44 }
  - { offsetInCU: 0xAA13, offset: 0x3A535, size: 0x8, addend: 0x0, symName: __ZNSt3__19make_pairB7v160006INS_16reverse_iteratorIPP6ShaderEES5_EENS_4pairINS_18__unwrap_ref_decayIT_E4typeENS7_IT0_E4typeEEEOS8_OSB_, symObjAddr: 0x8F5C, symBinAddr: 0x1000368AC, symSize: 0x38 }
  - { offsetInCU: 0xAA62, offset: 0x3A584, size: 0x8, addend: 0x0, symName: __ZNSt3__114__rewrap_rangeB7v160006INS_16reverse_iteratorIPP6ShaderEES5_EET_S6_T0_, symObjAddr: 0x8F94, symBinAddr: 0x1000368E4, symSize: 0x5C }
  - { offsetInCU: 0xAAAE, offset: 0x3A5D0, size: 0x8, addend: 0x0, symName: __ZNSt3__113__rewrap_iterB7v160006INS_16reverse_iteratorIPP6ShaderEES5_NS_18__unwrap_iter_implIS5_Lb0EEEEET_S8_T0_, symObjAddr: 0x8FF0, symBinAddr: 0x100036940, symSize: 0x88 }
  - { offsetInCU: 0xAB6F, offset: 0x3A691, size: 0x8, addend: 0x0, symName: __ZNSt3__122__make_exception_guardB7v160006INS_6vectorIjNS_9allocatorIjEEE16__destroy_vectorEEENS_28__exception_guard_exceptionsIT_EES7_, symObjAddr: 0x94A4, symBinAddr: 0x100036DB8, symSize: 0x40 }
  - { offsetInCU: 0xB1FB, offset: 0x3AD1D, size: 0x8, addend: 0x0, symName: _shaderList, symObjAddr: 0x5BC10, symBinAddr: 0x1000401D8, symSize: 0x0 }
  - { offsetInCU: 0xB45A, offset: 0x3AF7C, size: 0x8, addend: 0x0, symName: _lightColour, symObjAddr: 0x5BC28, symBinAddr: 0x1000401F0, symSize: 0x0 }
  - { offsetInCU: 0xBA1F, offset: 0x3B541, size: 0x8, addend: 0x0, symName: __ZN3glm5clampIfEET_S1_S1_S1_, symObjAddr: 0x1A14, symBinAddr: 0x1000302A0, symSize: 0x38 }
  - { offsetInCU: 0xBA74, offset: 0x3B596, size: 0x8, addend: 0x0, symName: __ZN3glm11perspectiveIfEENS_3matILi4ELi4ET_LNS_9qualifierE0EEES2_S2_S2_S2_, symObjAddr: 0x25A0, symBinAddr: 0x100030E2C, symSize: 0x44 }
  - { offsetInCU: 0xBAD8, offset: 0x3B5FA, size: 0x8, addend: 0x0, symName: __ZN3glm9normalizeILi3EfLNS_9qualifierE0EEENS_3vecIXT_ET0_XT1_EEERKS4_, symObjAddr: 0x2614, symBinAddr: 0x100030EA0, symSize: 0x2C }
  - { offsetInCU: 0xBB21, offset: 0x3B643, size: 0x8, addend: 0x0, symName: __ZN3glmmiIfLNS_9qualifierE0EEENS_3vecILi3ET_XT0_EEERKS4_S6_, symObjAddr: 0x2640, symBinAddr: 0x100030ECC, symSize: 0x74 }
  - { offsetInCU: 0xBB71, offset: 0x3B693, size: 0x8, addend: 0x0, symName: __ZN3glm5crossIfLNS_9qualifierE0EEENS_3vecILi3ET_XT0_EEERKS4_S6_, symObjAddr: 0x26B4, symBinAddr: 0x100030F40, symSize: 0x34 }
  - { offsetInCU: 0xBBBE, offset: 0x3B6E0, size: 0x8, addend: 0x0, symName: __ZN3glm7radiansIfEET_S1_, symObjAddr: 0x276C, symBinAddr: 0x100030FCC, symSize: 0x24 }
  - { offsetInCU: 0xBBF3, offset: 0x3B715, size: 0x8, addend: 0x0, symName: __ZN3glmmlIfLNS_9qualifierE0EEENS_3vecILi3ET_XT0_EEERKS4_S3_, symObjAddr: 0x27F0, symBinAddr: 0x100031050, symSize: 0x68 }
  - { offsetInCU: 0xCDC3, offset: 0x3C8E5, size: 0x8, addend: 0x0, symName: __ZN3glmmlIfLNS_9qualifierE0EEENS_3matILi4ELi4ET_XT0_EEERKS4_S6_, symObjAddr: 0x2B5C, symBinAddr: 0x1000313BC, symSize: 0x468 }
  - { offsetInCU: 0xCEA2, offset: 0x3C9C4, size: 0x8, addend: 0x0, symName: __ZN3glm9value_ptrIfLNS_9qualifierE0EEEPT_RNS_3matILi4ELi4ES2_XT0_EEE, symObjAddr: 0x309C, symBinAddr: 0x1000318FC, symSize: 0x28 }
  - { offsetInCU: 0xCEE1, offset: 0x3CA03, size: 0x8, addend: 0x0, symName: __ZN3glm3minIfEET_S1_S1_, symObjAddr: 0xA1D8, symBinAddr: 0x1000370A4, symSize: 0x48 }
  - { offsetInCU: 0xCF24, offset: 0x3CA46, size: 0x8, addend: 0x0, symName: __ZN3glm3maxIfEET_S1_S1_, symObjAddr: 0xA220, symBinAddr: 0x1000370EC, symSize: 0x48 }
  - { offsetInCU: 0xCF67, offset: 0x3CA89, size: 0x8, addend: 0x0, symName: __ZN3glm16perspectiveRH_NOIfEENS_3matILi4ELi4ET_LNS_9qualifierE0EEES2_S2_S2_S2_, symObjAddr: 0xA268, symBinAddr: 0x100037134, symSize: 0x1D0 }
  - { offsetInCU: 0xCFE3, offset: 0x3CB05, size: 0x8, addend: 0x0, symName: __ZN3glm3absIfEET_S1_, symObjAddr: 0xA438, symBinAddr: 0x100037304, symSize: 0x24 }
  - { offsetInCU: 0xD197, offset: 0x3CCB9, size: 0x8, addend: 0x0, symName: __ZN3glm11inversesqrtIfEET_S1_, symObjAddr: 0xA528, symBinAddr: 0x1000373F4, symSize: 0x30 }
  - { offsetInCU: 0xD1CC, offset: 0x3CCEE, size: 0x8, addend: 0x0, symName: __ZN3glm3dotILi3EfLNS_9qualifierE0EEET0_RKNS_3vecIXT_ES2_XT1_EEES6_, symObjAddr: 0xA558, symBinAddr: 0x100037424, symSize: 0x2C }
  - { offsetInCU: 0xD223, offset: 0x3CD45, size: 0x8, addend: 0x0, symName: __ZN3glmmlIfLNS_9qualifierE0EEENS_3vecILi3ET_XT0_EEERKS4_S6_, symObjAddr: 0xA5E0, symBinAddr: 0x1000374AC, symSize: 0x74 }
  - { offsetInCU: 0xD273, offset: 0x3CD95, size: 0x8, addend: 0x0, symName: __ZN3glmplIfLNS_9qualifierE0EEENS_3vecILi4ET_XT0_EEERKS4_S6_, symObjAddr: 0xAC24, symBinAddr: 0x100037ADC, symSize: 0x58 }
  - { offsetInCU: 0xD2C3, offset: 0x3CDE5, size: 0x8, addend: 0x0, symName: __ZN3glmmlIfLNS_9qualifierE0EEENS_3vecILi4ET_XT0_EEERKS4_RKS3_, symObjAddr: 0xAC7C, symBinAddr: 0x100037B34, symSize: 0x5C }
  - { offsetInCU: 0xD353, offset: 0x3CE75, size: 0x8, addend: 0x0, symName: _lightPos, symObjAddr: 0x5BC34, symBinAddr: 0x1000401FC, symSize: 0x0 }
  - { offsetInCU: 0xD369, offset: 0x3CE8B, size: 0x8, addend: 0x0, symName: _yaw, symObjAddr: 0xB858, symBinAddr: 0x100040090, symSize: 0x0 }
  - { offsetInCU: 0xD37F, offset: 0x3CEA1, size: 0x8, addend: 0x0, symName: _pitch, symObjAddr: 0x5BC40, symBinAddr: 0x100040208, symSize: 0x0 }
  - { offsetInCU: 0xD389, offset: 0x3CEAB, size: 0x8, addend: 0x0, symName: __Z10checkMousev, symObjAddr: 0x1848, symBinAddr: 0x1000300D4, symSize: 0x1B4 }
  - { offsetInCU: 0xD3AF, offset: 0x3CED1, size: 0x8, addend: 0x0, symName: __ZZ10checkMousevE5lastX, symObjAddr: 0x5BC48, symBinAddr: 0x100040180, symSize: 0x0 }
  - { offsetInCU: 0xD3C5, offset: 0x3CEE7, size: 0x8, addend: 0x0, symName: __ZZ10checkMousevE5lastY, symObjAddr: 0x5BC58, symBinAddr: 0x100040190, symSize: 0x0 }
  - { offsetInCU: 0xD443, offset: 0x3CF65, size: 0x8, addend: 0x0, symName: __ZL7vShader, symObjAddr: 0xB860, symBinAddr: 0x100040098, symSize: 0x0 }
  - { offsetInCU: 0xD45D, offset: 0x3CF7F, size: 0x8, addend: 0x0, symName: __ZL7fShader, symObjAddr: 0xB868, symBinAddr: 0x1000400A0, symSize: 0x0 }
  - { offsetInCU: 0xD6C7, offset: 0x3D1E9, size: 0x8, addend: 0x0, symName: __ZNSt3__16vectorINS_12basic_stringIcNS_11char_traitsIcEENS_9allocatorIcEEEENS4_IS6_EEE26__swap_out_circular_bufferERNS_14__split_bufferIS6_RS7_EE, symObjAddr: 0x49B4, symBinAddr: 0x10003318C, symSize: 0x118 }
  - { offsetInCU: 0xD813, offset: 0x3D335, size: 0x8, addend: 0x0, symName: __ZNSt3__16vectorIP4MeshNS_9allocatorIS2_EEE26__swap_out_circular_bufferERNS_14__split_bufferIS2_RS4_EE, symObjAddr: 0x6DB8, symBinAddr: 0x100034708, symSize: 0x118 }
  - { offsetInCU: 0xD86A, offset: 0x3D38C, size: 0x8, addend: 0x0, symName: __ZNSt3__16vectorIP6ShaderNS_9allocatorIS2_EEE26__swap_out_circular_bufferERNS_14__split_bufferIS2_RS4_EE, symObjAddr: 0x8298, symBinAddr: 0x100035BE8, symSize: 0x118 }
  - { offsetInCU: 0xF7E9, offset: 0x3F30B, size: 0x8, addend: 0x0, symName: __ZNSt3__16vectorIP4MeshNS_9allocatorIS2_EEEC1B7v160006Ev, symObjAddr: 0x0, symBinAddr: 0x10002EA34, symSize: 0x2C }
  - { offsetInCU: 0xF813, offset: 0x3F335, size: 0x8, addend: 0x0, symName: __ZNSt3__16vectorIP4MeshNS_9allocatorIS2_EEED1B7v160006Ev, symObjAddr: 0x2C, symBinAddr: 0x10002EA60, symSize: 0x2C }
  - { offsetInCU: 0xF83D, offset: 0x3F35F, size: 0x8, addend: 0x0, symName: __ZNSt3__16vectorIP6ShaderNS_9allocatorIS2_EEEC1B7v160006Ev, symObjAddr: 0x58, symBinAddr: 0x10002EA8C, symSize: 0x2C }
  - { offsetInCU: 0xF867, offset: 0x3F389, size: 0x8, addend: 0x0, symName: __ZNSt3__16vectorIP6ShaderNS_9allocatorIS2_EEED1B7v160006Ev, symObjAddr: 0x84, symBinAddr: 0x10002EAB8, symSize: 0x2C }
  - { offsetInCU: 0xF891, offset: 0x3F3B3, size: 0x8, addend: 0x0, symName: __ZN3glm3vecILi3EfLNS_9qualifierE0EEC1IdddEET_T0_T1_, symObjAddr: 0xB0, symBinAddr: 0x10002EAE4, symSize: 0x44 }
  - { offsetInCU: 0xF902, offset: 0x3F424, size: 0x8, addend: 0x0, symName: __ZN3glm3vecILi3EfLNS_9qualifierE0EEC1Efff, symObjAddr: 0xF4, symBinAddr: 0x10002EB28, symSize: 0x44 }
  - { offsetInCU: 0xF957, offset: 0x3F479, size: 0x8, addend: 0x0, symName: __Z9CreateOBJv, symObjAddr: 0x138, symBinAddr: 0x10002EB6C, symSize: 0x86C }
  - { offsetInCU: 0xF9EA, offset: 0x3F50C, size: 0x8, addend: 0x0, symName: __ZNSt3__16vectorINS_12basic_stringIcNS_11char_traitsIcEENS_9allocatorIcEEEENS4_IS6_EEEC1B7v160006Ev, symObjAddr: 0x9A4, symBinAddr: 0x10002F3D8, symSize: 0x2C }
  - { offsetInCU: 0xFA14, offset: 0x3F536, size: 0x8, addend: 0x0, symName: __ZNSt3__16vectorINS_12basic_stringIcNS_11char_traitsIcEENS_9allocatorIcEEEENS4_IS6_EEE9push_backB7v160006EOS6_, symObjAddr: 0x9D0, symBinAddr: 0x10002F404, symSize: 0x6C }
  - { offsetInCU: 0xFA50, offset: 0x3F572, size: 0x8, addend: 0x0, symName: __ZNKSt3__16vectorINS_12basic_stringIcNS_11char_traitsIcEENS_9allocatorIcEEEENS4_IS6_EEE4sizeB7v160006Ev, symObjAddr: 0xAC4, symBinAddr: 0x10002F470, symSize: 0x28 }
  - { offsetInCU: 0xFA76, offset: 0x3F598, size: 0x8, addend: 0x0, symName: __ZNSt3__16vectorINS_12basic_stringIcNS_11char_traitsIcEENS_9allocatorIcEEEENS4_IS6_EEE5beginB7v160006Ev, symObjAddr: 0xB70, symBinAddr: 0x10002F498, symSize: 0x30 }
  - { offsetInCU: 0xFA9E, offset: 0x3F5C0, size: 0x8, addend: 0x0, symName: __ZNSt3__16vectorINS_12basic_stringIcNS_11char_traitsIcEENS_9allocatorIcEEEENS4_IS6_EEE3endB7v160006Ev, symObjAddr: 0xBA0, symBinAddr: 0x10002F4C8, symSize: 0x30 }
  - { offsetInCU: 0xFAC6, offset: 0x3F5E8, size: 0x8, addend: 0x0, symName: __ZNKSt3__111__wrap_iterIPNS_12basic_stringIcNS_11char_traitsIcEENS_9allocatorIcEEEEEdeB7v160006Ev, symObjAddr: 0xC04, symBinAddr: 0x10002F52C, symSize: 0x18 }
  - { offsetInCU: 0xFAEC, offset: 0x3F60E, size: 0x8, addend: 0x0, symName: __ZNSt3__16vectorIP4MeshNS_9allocatorIS2_EEE9push_backB7v160006ERKS2_, symObjAddr: 0xC40, symBinAddr: 0x10002F544, symSize: 0x6C }
  - { offsetInCU: 0xFB23, offset: 0x3F645, size: 0x8, addend: 0x0, symName: __ZNSt3__111__wrap_iterIPNS_12basic_stringIcNS_11char_traitsIcEENS_9allocatorIcEEEEEppB7v160006Ev, symObjAddr: 0xCAC, symBinAddr: 0x10002F5B0, symSize: 0x20 }
  - { offsetInCU: 0xFB49, offset: 0x3F66B, size: 0x8, addend: 0x0, symName: __ZNSt3__16vectorINS_12basic_stringIcNS_11char_traitsIcEENS_9allocatorIcEEEENS4_IS6_EEED1B7v160006Ev, symObjAddr: 0xCCC, symBinAddr: 0x10002F5D0, symSize: 0x2C }
  - { offsetInCU: 0xFB72, offset: 0x3F694, size: 0x8, addend: 0x0, symName: __Z13CreateShadersv, symObjAddr: 0xCF8, symBinAddr: 0x10002F5FC, symSize: 0x88 }
  - { offsetInCU: 0xFB9C, offset: 0x3F6BE, size: 0x8, addend: 0x0, symName: __ZNSt3__16vectorIP6ShaderNS_9allocatorIS2_EEE9push_backB7v160006ERKS2_, symObjAddr: 0xD80, symBinAddr: 0x10002F684, symSize: 0x6C }
  - { offsetInCU: 0xFBD2, offset: 0x3F6F4, size: 0x8, addend: 0x0, symName: __Z13CreateTexturev, symObjAddr: 0xDEC, symBinAddr: 0x10002F6F0, symSize: 0x910 }
  - { offsetInCU: 0xFC74, offset: 0x3F796, size: 0x8, addend: 0x0, symName: __ZNSt3__16vectorIjNS_9allocatorIjEEEC1Em, symObjAddr: 0x16FC, symBinAddr: 0x100030000, symSize: 0x34 }
  - { offsetInCU: 0xFCAF, offset: 0x3F7D1, size: 0x8, addend: 0x0, symName: __ZNSt3__16vectorIjNS_9allocatorIjEEE4dataB7v160006Ev, symObjAddr: 0x1758, symBinAddr: 0x100030034, symSize: 0x28 }
  - { offsetInCU: 0xFCD5, offset: 0x3F7F7, size: 0x8, addend: 0x0, symName: __ZNSt3__16vectorINS_12basic_stringIcNS_11char_traitsIcEENS_9allocatorIcEEEENS4_IS6_EEEixB7v160006Em, symObjAddr: 0x17A4, symBinAddr: 0x10003005C, symSize: 0x2C }
  - { offsetInCU: 0xFD0C, offset: 0x3F82E, size: 0x8, addend: 0x0, symName: __ZN6Window9getWindowEv, symObjAddr: 0x19FC, symBinAddr: 0x100030288, symSize: 0x18 }
  - { offsetInCU: 0xFD32, offset: 0x3F854, size: 0x8, addend: 0x0, symName: _main, symObjAddr: 0x1A4C, symBinAddr: 0x1000302D8, symSize: 0xB54 }
  - { offsetInCU: 0xFEBD, offset: 0x3F9DF, size: 0x8, addend: 0x0, symName: __ZN6Window14getBufferWidthEv, symObjAddr: 0x25E4, symBinAddr: 0x100030E70, symSize: 0x18 }
  - { offsetInCU: 0xFEE3, offset: 0x3FA05, size: 0x8, addend: 0x0, symName: __ZN6Window15getBufferHeightEv, symObjAddr: 0x25FC, symBinAddr: 0x100030E88, symSize: 0x18 }
  - { offsetInCU: 0xFF09, offset: 0x3FA2B, size: 0x8, addend: 0x0, symName: __ZN6Window14getShouldCloseEv, symObjAddr: 0x26E8, symBinAddr: 0x100030F74, symSize: 0x34 }
  - { offsetInCU: 0xFF2E, offset: 0x3FA50, size: 0x8, addend: 0x0, symName: __Z3cosB7v160006f, symObjAddr: 0x2748, symBinAddr: 0x100030FA8, symSize: 0x24 }
  - { offsetInCU: 0xFF5C, offset: 0x3FA7E, size: 0x8, addend: 0x0, symName: __Z3sinB7v160006f, symObjAddr: 0x2790, symBinAddr: 0x100030FF0, symSize: 0x24 }
  - { offsetInCU: 0xFF8B, offset: 0x3FAAD, size: 0x8, addend: 0x0, symName: __ZN3glm3vecILi3EfLNS_9qualifierE0EEaSERKS2_, symObjAddr: 0x27B4, symBinAddr: 0x100031014, symSize: 0x3C }
  - { offsetInCU: 0xFFC1, offset: 0x3FAE3, size: 0x8, addend: 0x0, symName: __ZN3glm3vecILi3EfLNS_9qualifierE0EEpLIfEERS2_RKNS0_ILi3ET_LS1_0EEE, symObjAddr: 0x2858, symBinAddr: 0x1000310B8, symSize: 0x54 }
  - { offsetInCU: 0x10000, offset: 0x3FB22, size: 0x8, addend: 0x0, symName: __ZN3glm3vecILi3EfLNS_9qualifierE0EEmIIfEERS2_RKNS0_ILi3ET_LS1_0EEE, symObjAddr: 0x28AC, symBinAddr: 0x10003110C, symSize: 0x54 }
  - { offsetInCU: 0x10289, offset: 0x3FDAB, size: 0x8, addend: 0x0, symName: __ZN3glm3matILi4ELi4EfLNS_9qualifierE0EEC1ERKf, symObjAddr: 0x2900, symBinAddr: 0x100031160, symSize: 0x34 }
  - { offsetInCU: 0x102C2, offset: 0x3FDE4, size: 0x8, addend: 0x0, symName: __ZN3glm3matILi4ELi4EfLNS_9qualifierE0EEixEi, symObjAddr: 0x2934, symBinAddr: 0x100031194, symSize: 0x78 }
  - { offsetInCU: 0x102F9, offset: 0x3FE1B, size: 0x8, addend: 0x0, symName: __ZN3glm3vecILi4EfLNS_9qualifierE0EEixEi, symObjAddr: 0x29AC, symBinAddr: 0x10003120C, symSize: 0x10C }
  - { offsetInCU: 0x10330, offset: 0x3FE52, size: 0x8, addend: 0x0, symName: __ZN3glm3vecILi4EfLNS_9qualifierE0EEC1Effff, symObjAddr: 0x2AC8, symBinAddr: 0x100031328, symSize: 0x4C }
  - { offsetInCU: 0x10394, offset: 0x3FEB6, size: 0x8, addend: 0x0, symName: __ZN3glm3vecILi4EfLNS_9qualifierE0EEaSERKS2_, symObjAddr: 0x2B14, symBinAddr: 0x100031374, symSize: 0x48 }
  - { offsetInCU: 0x103CB, offset: 0x3FEED, size: 0x8, addend: 0x0, symName: __ZN3glm3matILi4ELi4EfLNS_9qualifierE0EEaSERKS2_, symObjAddr: 0x2FC4, symBinAddr: 0x100031824, symSize: 0x78 }
  - { offsetInCU: 0x10418, offset: 0x3FF3A, size: 0x8, addend: 0x0, symName: __ZNSt3__16vectorIP6ShaderNS_9allocatorIS2_EEEixB7v160006Em, symObjAddr: 0x303C, symBinAddr: 0x10003189C, symSize: 0x24 }
  - { offsetInCU: 0x1044F, offset: 0x3FF71, size: 0x8, addend: 0x0, symName: __ZN6Shader18GetUniformLocationEPKc, symObjAddr: 0x3060, symBinAddr: 0x1000318C0, symSize: 0x3C }
  - { offsetInCU: 0x10483, offset: 0x3FFA5, size: 0x8, addend: 0x0, symName: __ZNSt3__16vectorIP4MeshNS_9allocatorIS2_EEEixB7v160006Em, symObjAddr: 0x30C4, symBinAddr: 0x100031924, symSize: 0x24 }
  - { offsetInCU: 0x104BA, offset: 0x3FFDC, size: 0x8, addend: 0x0, symName: __ZN6Window11swapBuffersEv, symObjAddr: 0x30E8, symBinAddr: 0x100031948, symSize: 0x28 }
  - { offsetInCU: 0x104E0, offset: 0x40002, size: 0x8, addend: 0x0, symName: __ZNSt3__16vectorIP4MeshNS_9allocatorIS2_EEEC2B7v160006Ev, symObjAddr: 0x3110, symBinAddr: 0x100031970, symSize: 0x4C }
  - { offsetInCU: 0x10516, offset: 0x40038, size: 0x8, addend: 0x0, symName: __ZNSt3__117__compressed_pairIPP4MeshNS_9allocatorIS2_EEEC1B7v160006IDnNS_18__default_init_tagEEEOT_OT0_, symObjAddr: 0x315C, symBinAddr: 0x1000319BC, symSize: 0x3C }
  - { offsetInCU: 0x1056E, offset: 0x40090, size: 0x8, addend: 0x0, symName: __ZNSt3__117__compressed_pairIPP4MeshNS_9allocatorIS2_EEEC2B7v160006IDnNS_18__default_init_tagEEEOT_OT0_, symObjAddr: 0x31A8, symBinAddr: 0x100031A08, symSize: 0x40 }
  - { offsetInCU: 0x105C6, offset: 0x400E8, size: 0x8, addend: 0x0, symName: __ZNSt3__122__compressed_pair_elemIPP4MeshLi0ELb0EEC2B7v160006IDnvEEOT_, symObjAddr: 0x31E8, symBinAddr: 0x100031A48, symSize: 0x1C }
  - { offsetInCU: 0x10608, offset: 0x4012A, size: 0x8, addend: 0x0, symName: __ZNSt3__122__compressed_pair_elemINS_9allocatorIP4MeshEELi1ELb1EEC2B7v160006ENS_18__default_init_tagE, symObjAddr: 0x3204, symBinAddr: 0x100031A64, symSize: 0x2C }
  - { offsetInCU: 0x1063D, offset: 0x4015F, size: 0x8, addend: 0x0, symName: __ZNSt3__19allocatorIP4MeshEC2B7v160006Ev, symObjAddr: 0x3230, symBinAddr: 0x100031A90, symSize: 0x2C }
  - { offsetInCU: 0x10667, offset: 0x40189, size: 0x8, addend: 0x0, symName: __ZNSt3__116__non_trivial_ifILb1ENS_9allocatorIP4MeshEEEC2B7v160006Ev, symObjAddr: 0x325C, symBinAddr: 0x100031ABC, symSize: 0x14 }
  - { offsetInCU: 0x10691, offset: 0x401B3, size: 0x8, addend: 0x0, symName: __ZNSt3__16vectorIP4MeshNS_9allocatorIS2_EEED2B7v160006Ev, symObjAddr: 0x3270, symBinAddr: 0x100031AD0, symSize: 0x3C }
  - { offsetInCU: 0x106BB, offset: 0x401DD, size: 0x8, addend: 0x0, symName: __ZNSt3__16vectorIP4MeshNS_9allocatorIS2_EEE16__destroy_vectorC1ERS5_, symObjAddr: 0x32AC, symBinAddr: 0x100031B0C, symSize: 0x34 }
  - { offsetInCU: 0x106F4, offset: 0x40216, size: 0x8, addend: 0x0, symName: __ZNSt3__16vectorIP4MeshNS_9allocatorIS2_EEE16__destroy_vectorclB7v160006Ev, symObjAddr: 0x32E0, symBinAddr: 0x100031B40, symSize: 0x9C }
  - { offsetInCU: 0x1071A, offset: 0x4023C, size: 0x8, addend: 0x0, symName: __ZNSt3__16vectorIP4MeshNS_9allocatorIS2_EEE16__destroy_vectorC2ERS5_, symObjAddr: 0x337C, symBinAddr: 0x100031BDC, symSize: 0x20 }
  - { offsetInCU: 0x10753, offset: 0x40275, size: 0x8, addend: 0x0, symName: __ZNKSt3__16vectorIP4MeshNS_9allocatorIS2_EEE17__annotate_deleteB7v160006Ev, symObjAddr: 0x339C, symBinAddr: 0x100031BFC, symSize: 0xB8 }
  - { offsetInCU: 0x10779, offset: 0x4029B, size: 0x8, addend: 0x0, symName: __ZNSt3__16vectorIP4MeshNS_9allocatorIS2_EEE7__clearB7v160006Ev, symObjAddr: 0x3464, symBinAddr: 0x100031CC4, symSize: 0x28 }
  - { offsetInCU: 0x1079F, offset: 0x402C1, size: 0x8, addend: 0x0, symName: __ZNSt3__116allocator_traitsINS_9allocatorIP4MeshEEE10deallocateB7v160006ERS4_PS3_m, symObjAddr: 0x348C, symBinAddr: 0x100031CEC, symSize: 0x34 }
  - { offsetInCU: 0x107E1, offset: 0x40303, size: 0x8, addend: 0x0, symName: __ZNSt3__16vectorIP4MeshNS_9allocatorIS2_EEE7__allocB7v160006Ev, symObjAddr: 0x34C0, symBinAddr: 0x100031D20, symSize: 0x28 }
  - { offsetInCU: 0x10807, offset: 0x40329, size: 0x8, addend: 0x0, symName: __ZNKSt3__16vectorIP4MeshNS_9allocatorIS2_EEE8capacityB7v160006Ev, symObjAddr: 0x34E8, symBinAddr: 0x100031D48, symSize: 0x40 }
  - { offsetInCU: 0x1082D, offset: 0x4034F, size: 0x8, addend: 0x0, symName: __ZNKSt3__16vectorIP4MeshNS_9allocatorIS2_EEE31__annotate_contiguous_containerB7v160006EPKvS7_S7_S7_, symObjAddr: 0x3528, symBinAddr: 0x100031D88, symSize: 0x20 }
  - { offsetInCU: 0x1087F, offset: 0x403A1, size: 0x8, addend: 0x0, symName: __ZNKSt3__16vectorIP4MeshNS_9allocatorIS2_EEE4dataB7v160006Ev, symObjAddr: 0x3548, symBinAddr: 0x100031DA8, symSize: 0x28 }
  - { offsetInCU: 0x108A5, offset: 0x403C7, size: 0x8, addend: 0x0, symName: __ZNKSt3__16vectorIP4MeshNS_9allocatorIS2_EEE4sizeB7v160006Ev, symObjAddr: 0x3570, symBinAddr: 0x100031DD0, symSize: 0x28 }
  - { offsetInCU: 0x108CB, offset: 0x403ED, size: 0x8, addend: 0x0, symName: __ZNSt3__16vectorIP4MeshNS_9allocatorIS2_EEE22__base_destruct_at_endB7v160006EPS2_, symObjAddr: 0x35AC, symBinAddr: 0x100031E0C, symSize: 0xA0 }
  - { offsetInCU: 0x1090F, offset: 0x40431, size: 0x8, addend: 0x0, symName: __ZNSt3__116allocator_traitsINS_9allocatorIP4MeshEEE7destroyB7v160006IS3_vEEvRS4_PT_, symObjAddr: 0x364C, symBinAddr: 0x100031EAC, symSize: 0x2C }
  - { offsetInCU: 0x1094C, offset: 0x4046E, size: 0x8, addend: 0x0, symName: __ZNSt3__19allocatorIP4MeshE7destroyB7v160006EPS2_, symObjAddr: 0x3678, symBinAddr: 0x100031ED8, symSize: 0x14 }
  - { offsetInCU: 0x10980, offset: 0x404A2, size: 0x8, addend: 0x0, symName: __ZNSt3__19allocatorIP4MeshE10deallocateB7v160006EPS2_m, symObjAddr: 0x368C, symBinAddr: 0x100031EEC, symSize: 0x70 }
  - { offsetInCU: 0x109C2, offset: 0x404E4, size: 0x8, addend: 0x0, symName: __ZNSt3__117__compressed_pairIPP4MeshNS_9allocatorIS2_EEE6secondB7v160006Ev, symObjAddr: 0x3784, symBinAddr: 0x100031F5C, symSize: 0x24 }
  - { offsetInCU: 0x109E8, offset: 0x4050A, size: 0x8, addend: 0x0, symName: __ZNSt3__122__compressed_pair_elemINS_9allocatorIP4MeshEELi1ELb1EE5__getB7v160006Ev, symObjAddr: 0x37A8, symBinAddr: 0x100031F80, symSize: 0x14 }
  - { offsetInCU: 0x10A0E, offset: 0x40530, size: 0x8, addend: 0x0, symName: __ZNKSt3__16vectorIP4MeshNS_9allocatorIS2_EEE9__end_capB7v160006Ev, symObjAddr: 0x37BC, symBinAddr: 0x100031F94, symSize: 0x28 }
  - { offsetInCU: 0x10A34, offset: 0x40556, size: 0x8, addend: 0x0, symName: __ZNKSt3__117__compressed_pairIPP4MeshNS_9allocatorIS2_EEE5firstB7v160006Ev, symObjAddr: 0x37E4, symBinAddr: 0x100031FBC, symSize: 0x24 }
  - { offsetInCU: 0x10A5A, offset: 0x4057C, size: 0x8, addend: 0x0, symName: __ZNKSt3__122__compressed_pair_elemIPP4MeshLi0ELb0EE5__getB7v160006Ev, symObjAddr: 0x3808, symBinAddr: 0x100031FE0, symSize: 0x14 }
  - { offsetInCU: 0x10A80, offset: 0x405A2, size: 0x8, addend: 0x0, symName: __ZNSt3__16vectorIP6ShaderNS_9allocatorIS2_EEEC2B7v160006Ev, symObjAddr: 0x381C, symBinAddr: 0x100031FF4, symSize: 0x4C }
  - { offsetInCU: 0x10AAA, offset: 0x405CC, size: 0x8, addend: 0x0, symName: __ZNSt3__117__compressed_pairIPP6ShaderNS_9allocatorIS2_EEEC1B7v160006IDnNS_18__default_init_tagEEEOT_OT0_, symObjAddr: 0x3868, symBinAddr: 0x100032040, symSize: 0x3C }
  - { offsetInCU: 0x10B02, offset: 0x40624, size: 0x8, addend: 0x0, symName: __ZNSt3__117__compressed_pairIPP6ShaderNS_9allocatorIS2_EEEC2B7v160006IDnNS_18__default_init_tagEEEOT_OT0_, symObjAddr: 0x38B4, symBinAddr: 0x10003208C, symSize: 0x40 }
  - { offsetInCU: 0x10B5A, offset: 0x4067C, size: 0x8, addend: 0x0, symName: __ZNSt3__122__compressed_pair_elemIPP6ShaderLi0ELb0EEC2B7v160006IDnvEEOT_, symObjAddr: 0x38F4, symBinAddr: 0x1000320CC, symSize: 0x1C }
  - { offsetInCU: 0x10B9C, offset: 0x406BE, size: 0x8, addend: 0x0, symName: __ZNSt3__122__compressed_pair_elemINS_9allocatorIP6ShaderEELi1ELb1EEC2B7v160006ENS_18__default_init_tagE, symObjAddr: 0x3910, symBinAddr: 0x1000320E8, symSize: 0x2C }
  - { offsetInCU: 0x10BD1, offset: 0x406F3, size: 0x8, addend: 0x0, symName: __ZNSt3__19allocatorIP6ShaderEC2B7v160006Ev, symObjAddr: 0x393C, symBinAddr: 0x100032114, symSize: 0x2C }
  - { offsetInCU: 0x10BFB, offset: 0x4071D, size: 0x8, addend: 0x0, symName: __ZNSt3__116__non_trivial_ifILb1ENS_9allocatorIP6ShaderEEEC2B7v160006Ev, symObjAddr: 0x3968, symBinAddr: 0x100032140, symSize: 0x14 }
  - { offsetInCU: 0x10C25, offset: 0x40747, size: 0x8, addend: 0x0, symName: __ZNSt3__16vectorIP6ShaderNS_9allocatorIS2_EEED2B7v160006Ev, symObjAddr: 0x397C, symBinAddr: 0x100032154, symSize: 0x3C }
  - { offsetInCU: 0x10C4F, offset: 0x40771, size: 0x8, addend: 0x0, symName: __ZNSt3__16vectorIP6ShaderNS_9allocatorIS2_EEE16__destroy_vectorC1ERS5_, symObjAddr: 0x39B8, symBinAddr: 0x100032190, symSize: 0x34 }
  - { offsetInCU: 0x10C88, offset: 0x407AA, size: 0x8, addend: 0x0, symName: __ZNSt3__16vectorIP6ShaderNS_9allocatorIS2_EEE16__destroy_vectorclB7v160006Ev, symObjAddr: 0x39EC, symBinAddr: 0x1000321C4, symSize: 0x9C }
  - { offsetInCU: 0x10CAE, offset: 0x407D0, size: 0x8, addend: 0x0, symName: __ZNSt3__16vectorIP6ShaderNS_9allocatorIS2_EEE16__destroy_vectorC2ERS5_, symObjAddr: 0x3A88, symBinAddr: 0x100032260, symSize: 0x20 }
  - { offsetInCU: 0x10CE7, offset: 0x40809, size: 0x8, addend: 0x0, symName: __ZNKSt3__16vectorIP6ShaderNS_9allocatorIS2_EEE17__annotate_deleteB7v160006Ev, symObjAddr: 0x3AA8, symBinAddr: 0x100032280, symSize: 0xB8 }
  - { offsetInCU: 0x10D0D, offset: 0x4082F, size: 0x8, addend: 0x0, symName: __ZNSt3__16vectorIP6ShaderNS_9allocatorIS2_EEE7__clearB7v160006Ev, symObjAddr: 0x3B70, symBinAddr: 0x100032348, symSize: 0x28 }
  - { offsetInCU: 0x10D33, offset: 0x40855, size: 0x8, addend: 0x0, symName: __ZNSt3__116allocator_traitsINS_9allocatorIP6ShaderEEE10deallocateB7v160006ERS4_PS3_m, symObjAddr: 0x3B98, symBinAddr: 0x100032370, symSize: 0x34 }
  - { offsetInCU: 0x10D75, offset: 0x40897, size: 0x8, addend: 0x0, symName: __ZNSt3__16vectorIP6ShaderNS_9allocatorIS2_EEE7__allocB7v160006Ev, symObjAddr: 0x3BCC, symBinAddr: 0x1000323A4, symSize: 0x28 }
  - { offsetInCU: 0x10D9B, offset: 0x408BD, size: 0x8, addend: 0x0, symName: __ZNKSt3__16vectorIP6ShaderNS_9allocatorIS2_EEE8capacityB7v160006Ev, symObjAddr: 0x3BF4, symBinAddr: 0x1000323CC, symSize: 0x40 }
  - { offsetInCU: 0x10DC1, offset: 0x408E3, size: 0x8, addend: 0x0, symName: __ZNKSt3__16vectorIP6ShaderNS_9allocatorIS2_EEE31__annotate_contiguous_containerB7v160006EPKvS7_S7_S7_, symObjAddr: 0x3C34, symBinAddr: 0x10003240C, symSize: 0x20 }
  - { offsetInCU: 0x10E13, offset: 0x40935, size: 0x8, addend: 0x0, symName: __ZNKSt3__16vectorIP6ShaderNS_9allocatorIS2_EEE4dataB7v160006Ev, symObjAddr: 0x3C54, symBinAddr: 0x10003242C, symSize: 0x28 }
  - { offsetInCU: 0x10E39, offset: 0x4095B, size: 0x8, addend: 0x0, symName: __ZNKSt3__16vectorIP6ShaderNS_9allocatorIS2_EEE4sizeB7v160006Ev, symObjAddr: 0x3C7C, symBinAddr: 0x100032454, symSize: 0x28 }
  - { offsetInCU: 0x10E5F, offset: 0x40981, size: 0x8, addend: 0x0, symName: __ZNSt3__16vectorIP6ShaderNS_9allocatorIS2_EEE22__base_destruct_at_endB7v160006EPS2_, symObjAddr: 0x3CB8, symBinAddr: 0x100032490, symSize: 0xA0 }
  - { offsetInCU: 0x10EA3, offset: 0x409C5, size: 0x8, addend: 0x0, symName: __ZNSt3__116allocator_traitsINS_9allocatorIP6ShaderEEE7destroyB7v160006IS3_vEEvRS4_PT_, symObjAddr: 0x3D58, symBinAddr: 0x100032530, symSize: 0x2C }
  - { offsetInCU: 0x10EE0, offset: 0x40A02, size: 0x8, addend: 0x0, symName: __ZNSt3__19allocatorIP6ShaderE7destroyB7v160006EPS2_, symObjAddr: 0x3D84, symBinAddr: 0x10003255C, symSize: 0x14 }
  - { offsetInCU: 0x10F14, offset: 0x40A36, size: 0x8, addend: 0x0, symName: __ZNSt3__19allocatorIP6ShaderE10deallocateB7v160006EPS2_m, symObjAddr: 0x3D98, symBinAddr: 0x100032570, symSize: 0x70 }
  - { offsetInCU: 0x10F56, offset: 0x40A78, size: 0x8, addend: 0x0, symName: __ZNSt3__117__compressed_pairIPP6ShaderNS_9allocatorIS2_EEE6secondB7v160006Ev, symObjAddr: 0x3E08, symBinAddr: 0x1000325E0, symSize: 0x24 }
  - { offsetInCU: 0x10F7C, offset: 0x40A9E, size: 0x8, addend: 0x0, symName: __ZNSt3__122__compressed_pair_elemINS_9allocatorIP6ShaderEELi1ELb1EE5__getB7v160006Ev, symObjAddr: 0x3E2C, symBinAddr: 0x100032604, symSize: 0x14 }
  - { offsetInCU: 0x10FA2, offset: 0x40AC4, size: 0x8, addend: 0x0, symName: __ZNKSt3__16vectorIP6ShaderNS_9allocatorIS2_EEE9__end_capB7v160006Ev, symObjAddr: 0x3E40, symBinAddr: 0x100032618, symSize: 0x28 }
  - { offsetInCU: 0x10FC8, offset: 0x40AEA, size: 0x8, addend: 0x0, symName: __ZNKSt3__117__compressed_pairIPP6ShaderNS_9allocatorIS2_EEE5firstB7v160006Ev, symObjAddr: 0x3E68, symBinAddr: 0x100032640, symSize: 0x24 }
  - { offsetInCU: 0x10FEE, offset: 0x40B10, size: 0x8, addend: 0x0, symName: __ZNKSt3__122__compressed_pair_elemIPP6ShaderLi0ELb0EE5__getB7v160006Ev, symObjAddr: 0x3E8C, symBinAddr: 0x100032664, symSize: 0x14 }
  - { offsetInCU: 0x11014, offset: 0x40B36, size: 0x8, addend: 0x0, symName: __ZN3glm3vecILi3EfLNS_9qualifierE0EEC2IdddEET_T0_T1_, symObjAddr: 0x3EA0, symBinAddr: 0x100032678, symSize: 0x44 }
  - { offsetInCU: 0x11085, offset: 0x40BA7, size: 0x8, addend: 0x0, symName: __ZN3glm3vecILi3EfLNS_9qualifierE0EEC2Efff, symObjAddr: 0x3EE4, symBinAddr: 0x1000326BC, symSize: 0x38 }
  - { offsetInCU: 0x110DB, offset: 0x40BFD, size: 0x8, addend: 0x0, symName: __ZNSt3__16vectorINS_12basic_stringIcNS_11char_traitsIcEENS_9allocatorIcEEEENS4_IS6_EEEC2B7v160006Ev, symObjAddr: 0x3F1C, symBinAddr: 0x1000326F4, symSize: 0x4C }
  - { offsetInCU: 0x11105, offset: 0x40C27, size: 0x8, addend: 0x0, symName: __ZNSt3__117__compressed_pairIPNS_12basic_stringIcNS_11char_traitsIcEENS_9allocatorIcEEEENS4_IS6_EEEC1B7v160006IDnNS_18__default_init_tagEEEOT_OT0_, symObjAddr: 0x3F68, symBinAddr: 0x100032740, symSize: 0x3C }
  - { offsetInCU: 0x1115D, offset: 0x40C7F, size: 0x8, addend: 0x0, symName: __ZNSt3__117__compressed_pairIPNS_12basic_stringIcNS_11char_traitsIcEENS_9allocatorIcEEEENS4_IS6_EEEC2B7v160006IDnNS_18__default_init_tagEEEOT_OT0_, symObjAddr: 0x3FB4, symBinAddr: 0x10003278C, symSize: 0x40 }
  - { offsetInCU: 0x111B5, offset: 0x40CD7, size: 0x8, addend: 0x0, symName: __ZNSt3__122__compressed_pair_elemIPNS_12basic_stringIcNS_11char_traitsIcEENS_9allocatorIcEEEELi0ELb0EEC2B7v160006IDnvEEOT_, symObjAddr: 0x3FF4, symBinAddr: 0x1000327CC, symSize: 0x1C }
  - { offsetInCU: 0x111F7, offset: 0x40D19, size: 0x8, addend: 0x0, symName: __ZNSt3__122__compressed_pair_elemINS_9allocatorINS_12basic_stringIcNS_11char_traitsIcEENS1_IcEEEEEELi1ELb1EEC2B7v160006ENS_18__default_init_tagE, symObjAddr: 0x4010, symBinAddr: 0x1000327E8, symSize: 0x2C }
  - { offsetInCU: 0x1122C, offset: 0x40D4E, size: 0x8, addend: 0x0, symName: __ZNSt3__19allocatorINS_12basic_stringIcNS_11char_traitsIcEENS0_IcEEEEEC2B7v160006Ev, symObjAddr: 0x403C, symBinAddr: 0x100032814, symSize: 0x2C }
  - { offsetInCU: 0x11256, offset: 0x40D78, size: 0x8, addend: 0x0, symName: __ZNSt3__116__non_trivial_ifILb1ENS_9allocatorINS_12basic_stringIcNS_11char_traitsIcEENS1_IcEEEEEEEC2B7v160006Ev, symObjAddr: 0x4068, symBinAddr: 0x100032840, symSize: 0x14 }
  - { offsetInCU: 0x11280, offset: 0x40DA2, size: 0x8, addend: 0x0, symName: __ZNSt3__16vectorINS_12basic_stringIcNS_11char_traitsIcEENS_9allocatorIcEEEENS4_IS6_EEED2B7v160006Ev, symObjAddr: 0x407C, symBinAddr: 0x100032854, symSize: 0x3C }
  - { offsetInCU: 0x112AA, offset: 0x40DCC, size: 0x8, addend: 0x0, symName: __ZNSt3__16vectorINS_12basic_stringIcNS_11char_traitsIcEENS_9allocatorIcEEEENS4_IS6_EEE16__destroy_vectorC1ERS8_, symObjAddr: 0x40B8, symBinAddr: 0x100032890, symSize: 0x34 }
  - { offsetInCU: 0x112E3, offset: 0x40E05, size: 0x8, addend: 0x0, symName: __ZNSt3__16vectorINS_12basic_stringIcNS_11char_traitsIcEENS_9allocatorIcEEEENS4_IS6_EEE16__destroy_vectorclB7v160006Ev, symObjAddr: 0x40EC, symBinAddr: 0x1000328C4, symSize: 0x9C }
  - { offsetInCU: 0x11309, offset: 0x40E2B, size: 0x8, addend: 0x0, symName: __ZNSt3__16vectorINS_12basic_stringIcNS_11char_traitsIcEENS_9allocatorIcEEEENS4_IS6_EEE16__destroy_vectorC2ERS8_, symObjAddr: 0x4188, symBinAddr: 0x100032960, symSize: 0x20 }
  - { offsetInCU: 0x11342, offset: 0x40E64, size: 0x8, addend: 0x0, symName: __ZNKSt3__16vectorINS_12basic_stringIcNS_11char_traitsIcEENS_9allocatorIcEEEENS4_IS6_EEE17__annotate_deleteB7v160006Ev, symObjAddr: 0x41A8, symBinAddr: 0x100032980, symSize: 0xD4 }
  - { offsetInCU: 0x11368, offset: 0x40E8A, size: 0x8, addend: 0x0, symName: __ZNSt3__16vectorINS_12basic_stringIcNS_11char_traitsIcEENS_9allocatorIcEEEENS4_IS6_EEE7__clearB7v160006Ev, symObjAddr: 0x428C, symBinAddr: 0x100032A64, symSize: 0x28 }
  - { offsetInCU: 0x1138E, offset: 0x40EB0, size: 0x8, addend: 0x0, symName: __ZNSt3__116allocator_traitsINS_9allocatorINS_12basic_stringIcNS_11char_traitsIcEENS1_IcEEEEEEE10deallocateB7v160006ERS7_PS6_m, symObjAddr: 0x42B4, symBinAddr: 0x100032A8C, symSize: 0x34 }
  - { offsetInCU: 0x113D0, offset: 0x40EF2, size: 0x8, addend: 0x0, symName: __ZNSt3__16vectorINS_12basic_stringIcNS_11char_traitsIcEENS_9allocatorIcEEEENS4_IS6_EEE7__allocB7v160006Ev, symObjAddr: 0x42E8, symBinAddr: 0x100032AC0, symSize: 0x28 }
  - { offsetInCU: 0x113F6, offset: 0x40F18, size: 0x8, addend: 0x0, symName: __ZNKSt3__16vectorINS_12basic_stringIcNS_11char_traitsIcEENS_9allocatorIcEEEENS4_IS6_EEE8capacityB7v160006Ev, symObjAddr: 0x4310, symBinAddr: 0x100032AE8, symSize: 0x40 }
  - { offsetInCU: 0x1141C, offset: 0x40F3E, size: 0x8, addend: 0x0, symName: __ZNKSt3__16vectorINS_12basic_stringIcNS_11char_traitsIcEENS_9allocatorIcEEEENS4_IS6_EEE31__annotate_contiguous_containerB7v160006EPKvSA_SA_SA_, symObjAddr: 0x4350, symBinAddr: 0x100032B28, symSize: 0x20 }
  - { offsetInCU: 0x1146E, offset: 0x40F90, size: 0x8, addend: 0x0, symName: __ZNKSt3__16vectorINS_12basic_stringIcNS_11char_traitsIcEENS_9allocatorIcEEEENS4_IS6_EEE4dataB7v160006Ev, symObjAddr: 0x4370, symBinAddr: 0x100032B48, symSize: 0x28 }
  - { offsetInCU: 0x11494, offset: 0x40FB6, size: 0x8, addend: 0x0, symName: __ZNSt3__16vectorINS_12basic_stringIcNS_11char_traitsIcEENS_9allocatorIcEEEENS4_IS6_EEE22__base_destruct_at_endB7v160006EPS6_, symObjAddr: 0x43AC, symBinAddr: 0x100032B84, symSize: 0xA0 }
  - { offsetInCU: 0x114D8, offset: 0x40FFA, size: 0x8, addend: 0x0, symName: __ZNSt3__116allocator_traitsINS_9allocatorINS_12basic_stringIcNS_11char_traitsIcEENS1_IcEEEEEEE7destroyB7v160006IS6_vEEvRS7_PT_, symObjAddr: 0x444C, symBinAddr: 0x100032C24, symSize: 0x2C }
  - { offsetInCU: 0x11515, offset: 0x41037, size: 0x8, addend: 0x0, symName: __ZNSt3__19allocatorINS_12basic_stringIcNS_11char_traitsIcEENS0_IcEEEEE7destroyB7v160006EPS5_, symObjAddr: 0x4478, symBinAddr: 0x100032C50, symSize: 0x28 }
  - { offsetInCU: 0x11549, offset: 0x4106B, size: 0x8, addend: 0x0, symName: __ZNSt3__19allocatorINS_12basic_stringIcNS_11char_traitsIcEENS0_IcEEEEE10deallocateB7v160006EPS5_m, symObjAddr: 0x44A0, symBinAddr: 0x100032C78, symSize: 0x74 }
  - { offsetInCU: 0x1158B, offset: 0x410AD, size: 0x8, addend: 0x0, symName: __ZNSt3__117__compressed_pairIPNS_12basic_stringIcNS_11char_traitsIcEENS_9allocatorIcEEEENS4_IS6_EEE6secondB7v160006Ev, symObjAddr: 0x4514, symBinAddr: 0x100032CEC, symSize: 0x24 }
  - { offsetInCU: 0x115B1, offset: 0x410D3, size: 0x8, addend: 0x0, symName: __ZNSt3__122__compressed_pair_elemINS_9allocatorINS_12basic_stringIcNS_11char_traitsIcEENS1_IcEEEEEELi1ELb1EE5__getB7v160006Ev, symObjAddr: 0x4538, symBinAddr: 0x100032D10, symSize: 0x14 }
  - { offsetInCU: 0x115D7, offset: 0x410F9, size: 0x8, addend: 0x0, symName: __ZNKSt3__16vectorINS_12basic_stringIcNS_11char_traitsIcEENS_9allocatorIcEEEENS4_IS6_EEE9__end_capB7v160006Ev, symObjAddr: 0x454C, symBinAddr: 0x100032D24, symSize: 0x28 }
  - { offsetInCU: 0x115FD, offset: 0x4111F, size: 0x8, addend: 0x0, symName: __ZNKSt3__117__compressed_pairIPNS_12basic_stringIcNS_11char_traitsIcEENS_9allocatorIcEEEENS4_IS6_EEE5firstB7v160006Ev, symObjAddr: 0x4574, symBinAddr: 0x100032D4C, symSize: 0x24 }
  - { offsetInCU: 0x11623, offset: 0x41145, size: 0x8, addend: 0x0, symName: __ZNKSt3__122__compressed_pair_elemIPNS_12basic_stringIcNS_11char_traitsIcEENS_9allocatorIcEEEELi0ELb0EE5__getB7v160006Ev, symObjAddr: 0x4598, symBinAddr: 0x100032D70, symSize: 0x14 }
  - { offsetInCU: 0x11649, offset: 0x4116B, size: 0x8, addend: 0x0, symName: __ZNSt3__16vectorINS_12basic_stringIcNS_11char_traitsIcEENS_9allocatorIcEEEENS4_IS6_EEE9__end_capB7v160006Ev, symObjAddr: 0x45AC, symBinAddr: 0x100032D84, symSize: 0x28 }
  - { offsetInCU: 0x11675, offset: 0x41197, size: 0x8, addend: 0x0, symName: __ZNSt3__16vectorINS_12basic_stringIcNS_11char_traitsIcEENS_9allocatorIcEEEENS4_IS6_EEE22__construct_one_at_endB7v160006IJS6_EEEvDpOT_, symObjAddr: 0x45D4, symBinAddr: 0x100032DAC, symSize: 0x98 }
  - { offsetInCU: 0x116C4, offset: 0x411E6, size: 0x8, addend: 0x0, symName: __ZNSt3__16vectorINS_12basic_stringIcNS_11char_traitsIcEENS_9allocatorIcEEEENS4_IS6_EEE21__push_back_slow_pathIS6_EEvOT_, symObjAddr: 0x466C, symBinAddr: 0x100032E44, symSize: 0xE0 }
  - { offsetInCU: 0x11722, offset: 0x41244, size: 0x8, addend: 0x0, symName: __ZNSt3__117__compressed_pairIPNS_12basic_stringIcNS_11char_traitsIcEENS_9allocatorIcEEEENS4_IS6_EEE5firstB7v160006Ev, symObjAddr: 0x474C, symBinAddr: 0x100032F24, symSize: 0x24 }
  - { offsetInCU: 0x11748, offset: 0x4126A, size: 0x8, addend: 0x0, symName: __ZNSt3__122__compressed_pair_elemIPNS_12basic_stringIcNS_11char_traitsIcEENS_9allocatorIcEEEELi0ELb0EE5__getB7v160006Ev, symObjAddr: 0x4770, symBinAddr: 0x100032F48, symSize: 0x14 }
  - { offsetInCU: 0x11787, offset: 0x412A9, size: 0x8, addend: 0x0, symName: __ZNSt3__16vectorINS_12basic_stringIcNS_11char_traitsIcEENS_9allocatorIcEEEENS4_IS6_EEE21_ConstructTransactionC1B7v160006ERS8_m, symObjAddr: 0x4784, symBinAddr: 0x100032F5C, symSize: 0x3C }
  - { offsetInCU: 0x117CF, offset: 0x412F1, size: 0x8, addend: 0x0, symName: __ZNSt3__116allocator_traitsINS_9allocatorINS_12basic_stringIcNS_11char_traitsIcEENS1_IcEEEEEEE9constructB7v160006IS6_JS6_EvEEvRS7_PT_DpOT0_, symObjAddr: 0x47C0, symBinAddr: 0x100032F98, symSize: 0x34 }
  - { offsetInCU: 0x11826, offset: 0x41348, size: 0x8, addend: 0x0, symName: __ZNSt3__16vectorINS_12basic_stringIcNS_11char_traitsIcEENS_9allocatorIcEEEENS4_IS6_EEE21_ConstructTransactionD1B7v160006Ev, symObjAddr: 0x47F4, symBinAddr: 0x100032FCC, symSize: 0x2C }
  - { offsetInCU: 0x11850, offset: 0x41372, size: 0x8, addend: 0x0, symName: __ZNSt3__16vectorINS_12basic_stringIcNS_11char_traitsIcEENS_9allocatorIcEEEENS4_IS6_EEE21_ConstructTransactionC2B7v160006ERS8_m, symObjAddr: 0x4820, symBinAddr: 0x100032FF8, symSize: 0x4C }
  - { offsetInCU: 0x11898, offset: 0x413BA, size: 0x8, addend: 0x0, symName: __ZNSt3__19allocatorINS_12basic_stringIcNS_11char_traitsIcEENS0_IcEEEEE9constructB7v160006IS5_JS5_EEEvPT_DpOT0_, symObjAddr: 0x486C, symBinAddr: 0x100033044, symSize: 0x30 }
  - { offsetInCU: 0x118EE, offset: 0x41410, size: 0x8, addend: 0x0, symName: __ZNSt3__16vectorINS_12basic_stringIcNS_11char_traitsIcEENS_9allocatorIcEEEENS4_IS6_EEE21_ConstructTransactionD2B7v160006Ev, symObjAddr: 0x489C, symBinAddr: 0x100033074, symSize: 0x20 }
  - { offsetInCU: 0x11918, offset: 0x4143A, size: 0x8, addend: 0x0, symName: __ZNKSt3__16vectorINS_12basic_stringIcNS_11char_traitsIcEENS_9allocatorIcEEEENS4_IS6_EEE11__recommendB7v160006Em, symObjAddr: 0x48BC, symBinAddr: 0x100033094, symSize: 0xB4 }
  - { offsetInCU: 0x1196D, offset: 0x4148F, size: 0x8, addend: 0x0, symName: __ZNSt3__114__split_bufferINS_12basic_stringIcNS_11char_traitsIcEENS_9allocatorIcEEEERNS4_IS6_EEEC1EmmS8_, symObjAddr: 0x4970, symBinAddr: 0x100033148, symSize: 0x44 }
  - { offsetInCU: 0x119C3, offset: 0x414E5, size: 0x8, addend: 0x0, symName: __ZNSt3__114__split_bufferINS_12basic_stringIcNS_11char_traitsIcEENS_9allocatorIcEEEERNS4_IS6_EEED1Ev, symObjAddr: 0x4ACC, symBinAddr: 0x1000332A4, symSize: 0x2C }
  - { offsetInCU: 0x119EF, offset: 0x41511, size: 0x8, addend: 0x0, symName: __ZNKSt3__16vectorINS_12basic_stringIcNS_11char_traitsIcEENS_9allocatorIcEEEENS4_IS6_EEE8max_sizeEv, symObjAddr: 0x4AF8, symBinAddr: 0x1000332D0, symSize: 0x74 }
  - { offsetInCU: 0x11A17, offset: 0x41539, size: 0x8, addend: 0x0, symName: __ZNKSt3__16vectorINS_12basic_stringIcNS_11char_traitsIcEENS_9allocatorIcEEEENS4_IS6_EEE20__throw_length_errorB7v160006Ev, symObjAddr: 0x4B6C, symBinAddr: 0x100033344, symSize: 0x1C }
  - { offsetInCU: 0x11A47, offset: 0x41569, size: 0x8, addend: 0x0, symName: __ZNSt3__116allocator_traitsINS_9allocatorINS_12basic_stringIcNS_11char_traitsIcEENS1_IcEEEEEEE8max_sizeB7v160006IS7_vEEmRKS7_, symObjAddr: 0x4BE0, symBinAddr: 0x100033360, symSize: 0x24 }
  - { offsetInCU: 0x11A75, offset: 0x41597, size: 0x8, addend: 0x0, symName: __ZNKSt3__16vectorINS_12basic_stringIcNS_11char_traitsIcEENS_9allocatorIcEEEENS4_IS6_EEE7__allocB7v160006Ev, symObjAddr: 0x4C04, symBinAddr: 0x100033384, symSize: 0x28 }
  - { offsetInCU: 0x11A9B, offset: 0x415BD, size: 0x8, addend: 0x0, symName: __ZNKSt3__19allocatorINS_12basic_stringIcNS_11char_traitsIcEENS0_IcEEEEE8max_sizeB7v160006Ev, symObjAddr: 0x4CC8, symBinAddr: 0x1000333AC, symSize: 0x18 }
  - { offsetInCU: 0x11AC1, offset: 0x415E3, size: 0x8, addend: 0x0, symName: __ZNKSt3__117__compressed_pairIPNS_12basic_stringIcNS_11char_traitsIcEENS_9allocatorIcEEEENS4_IS6_EEE6secondB7v160006Ev, symObjAddr: 0x4CE0, symBinAddr: 0x1000333C4, symSize: 0x24 }
  - { offsetInCU: 0x11AE7, offset: 0x41609, size: 0x8, addend: 0x0, symName: __ZNKSt3__122__compressed_pair_elemINS_9allocatorINS_12basic_stringIcNS_11char_traitsIcEENS1_IcEEEEEELi1ELb1EE5__getB7v160006Ev, symObjAddr: 0x4D04, symBinAddr: 0x1000333E8, symSize: 0x14 }
  - { offsetInCU: 0x11B0D, offset: 0x4162F, size: 0x8, addend: 0x0, symName: __ZNSt3__114__split_bufferINS_12basic_stringIcNS_11char_traitsIcEENS_9allocatorIcEEEERNS4_IS6_EEEC2EmmS8_, symObjAddr: 0x4E58, symBinAddr: 0x1000333FC, symSize: 0xE0 }
  - { offsetInCU: 0x11B81, offset: 0x416A3, size: 0x8, addend: 0x0, symName: __ZNSt3__117__compressed_pairIPNS_12basic_stringIcNS_11char_traitsIcEENS_9allocatorIcEEEERNS4_IS6_EEEC1B7v160006IDnS9_EEOT_OT0_, symObjAddr: 0x4F38, symBinAddr: 0x1000334DC, symSize: 0x3C }
  - { offsetInCU: 0x11BD9, offset: 0x416FB, size: 0x8, addend: 0x0, symName: __ZNSt3__114__split_bufferINS_12basic_stringIcNS_11char_traitsIcEENS_9allocatorIcEEEERNS4_IS6_EEE7__allocB7v160006Ev, symObjAddr: 0x4FB4, symBinAddr: 0x100033558, symSize: 0x28 }
  - { offsetInCU: 0x11BFF, offset: 0x41721, size: 0x8, addend: 0x0, symName: __ZNSt3__114__split_bufferINS_12basic_stringIcNS_11char_traitsIcEENS_9allocatorIcEEEERNS4_IS6_EEE9__end_capB7v160006Ev, symObjAddr: 0x4FDC, symBinAddr: 0x100033580, symSize: 0x28 }
  - { offsetInCU: 0x11C25, offset: 0x41747, size: 0x8, addend: 0x0, symName: __ZNSt3__117__compressed_pairIPNS_12basic_stringIcNS_11char_traitsIcEENS_9allocatorIcEEEERNS4_IS6_EEEC2B7v160006IDnS9_EEOT_OT0_, symObjAddr: 0x5004, symBinAddr: 0x1000335A8, symSize: 0x48 }
  - { offsetInCU: 0x11C7D, offset: 0x4179F, size: 0x8, addend: 0x0, symName: __ZNSt3__122__compressed_pair_elemIRNS_9allocatorINS_12basic_stringIcNS_11char_traitsIcEENS1_IcEEEEEELi1ELb0EEC2B7v160006IS8_vEEOT_, symObjAddr: 0x504C, symBinAddr: 0x1000335F0, symSize: 0x20 }
  - { offsetInCU: 0x11CBF, offset: 0x417E1, size: 0x8, addend: 0x0, symName: __ZNSt3__19allocatorINS_12basic_stringIcNS_11char_traitsIcEENS0_IcEEEEE8allocateB7v160006Em, symObjAddr: 0x506C, symBinAddr: 0x100033610, symSize: 0x8C }
  - { offsetInCU: 0x11CF3, offset: 0x41815, size: 0x8, addend: 0x0, symName: __ZNSt3__117__compressed_pairIPNS_12basic_stringIcNS_11char_traitsIcEENS_9allocatorIcEEEERNS4_IS6_EEE6secondB7v160006Ev, symObjAddr: 0x5178, symBinAddr: 0x10003369C, symSize: 0x28 }
  - { offsetInCU: 0x11D19, offset: 0x4183B, size: 0x8, addend: 0x0, symName: __ZNSt3__122__compressed_pair_elemIRNS_9allocatorINS_12basic_stringIcNS_11char_traitsIcEENS1_IcEEEEEELi1ELb0EE5__getB7v160006Ev, symObjAddr: 0x51A0, symBinAddr: 0x1000336C4, symSize: 0x18 }
  - { offsetInCU: 0x11D3F, offset: 0x41861, size: 0x8, addend: 0x0, symName: __ZNSt3__117__compressed_pairIPNS_12basic_stringIcNS_11char_traitsIcEENS_9allocatorIcEEEERNS4_IS6_EEE5firstB7v160006Ev, symObjAddr: 0x51B8, symBinAddr: 0x1000336DC, symSize: 0x24 }
  - { offsetInCU: 0x11D65, offset: 0x41887, size: 0x8, addend: 0x0, symName: __ZNSt3__116reverse_iteratorIPNS_12basic_stringIcNS_11char_traitsIcEENS_9allocatorIcEEEEEC1B7v160006ES7_, symObjAddr: 0x5310, symBinAddr: 0x100033834, symSize: 0x34 }
  - { offsetInCU: 0x11D9D, offset: 0x418BF, size: 0x8, addend: 0x0, symName: __ZNKSt3__116reverse_iteratorIPNS_12basic_stringIcNS_11char_traitsIcEENS_9allocatorIcEEEEE4baseB7v160006Ev, symObjAddr: 0x5344, symBinAddr: 0x100033868, symSize: 0x18 }
  - { offsetInCU: 0x11DC3, offset: 0x418E5, size: 0x8, addend: 0x0, symName: __ZNKSt3__16vectorINS_12basic_stringIcNS_11char_traitsIcEENS_9allocatorIcEEEENS4_IS6_EEE14__annotate_newB7v160006Em, symObjAddr: 0x5398, symBinAddr: 0x1000338BC, symSize: 0xC8 }
  - { offsetInCU: 0x11DF8, offset: 0x4191A, size: 0x8, addend: 0x0, symName: __ZNSt3__129_AllocatorDestroyRangeReverseINS_9allocatorINS_12basic_stringIcNS_11char_traitsIcEENS1_IcEEEEEENS_16reverse_iteratorIPS6_EEEC1B7v160006ERS7_RSA_SD_, symObjAddr: 0x54BC, symBinAddr: 0x1000339E0, symSize: 0x44 }
  - { offsetInCU: 0x11E4F, offset: 0x41971, size: 0x8, addend: 0x0, symName: __ZNSt3__116allocator_traitsINS_9allocatorINS_12basic_stringIcNS_11char_traitsIcEENS1_IcEEEEEEE9constructB7v160006IS6_JRKS6_EvEEvRS7_PT_DpOT0_, symObjAddr: 0x5548, symBinAddr: 0x100033A6C, symSize: 0x34 }
  - { offsetInCU: 0x11EA6, offset: 0x419C8, size: 0x8, addend: 0x0, symName: __ZNKSt3__116reverse_iteratorIPNS_12basic_stringIcNS_11char_traitsIcEENS_9allocatorIcEEEEEdeB7v160006Ev, symObjAddr: 0x55A0, symBinAddr: 0x100033AC4, symSize: 0x28 }
  - { offsetInCU: 0x11EDA, offset: 0x419FC, size: 0x8, addend: 0x0, symName: __ZNSt3__116reverse_iteratorIPNS_12basic_stringIcNS_11char_traitsIcEENS_9allocatorIcEEEEEppB7v160006Ev, symObjAddr: 0x55C8, symBinAddr: 0x100033AEC, symSize: 0x20 }
  - { offsetInCU: 0x11F00, offset: 0x41A22, size: 0x8, addend: 0x0, symName: __ZNSt3__128__exception_guard_exceptionsINS_29_AllocatorDestroyRangeReverseINS_9allocatorINS_12basic_stringIcNS_11char_traitsIcEENS2_IcEEEEEENS_16reverse_iteratorIPS7_EEEEE10__completeB7v160006Ev, symObjAddr: 0x55E8, symBinAddr: 0x100033B0C, symSize: 0x1C }
  - { offsetInCU: 0x11F26, offset: 0x41A48, size: 0x8, addend: 0x0, symName: __ZNSt3__128__exception_guard_exceptionsINS_29_AllocatorDestroyRangeReverseINS_9allocatorINS_12basic_stringIcNS_11char_traitsIcEENS2_IcEEEEEENS_16reverse_iteratorIPS7_EEEEED1B7v160006Ev, symObjAddr: 0x5604, symBinAddr: 0x100033B28, symSize: 0x2C }
  - { offsetInCU: 0x11F50, offset: 0x41A72, size: 0x8, addend: 0x0, symName: __ZNSt3__128__exception_guard_exceptionsINS_29_AllocatorDestroyRangeReverseINS_9allocatorINS_12basic_stringIcNS_11char_traitsIcEENS2_IcEEEEEENS_16reverse_iteratorIPS7_EEEEEC1B7v160006ESC_, symObjAddr: 0x5630, symBinAddr: 0x100033B54, symSize: 0x34 }
  - { offsetInCU: 0x11F89, offset: 0x41AAB, size: 0x8, addend: 0x0, symName: __ZNSt3__128__exception_guard_exceptionsINS_29_AllocatorDestroyRangeReverseINS_9allocatorINS_12basic_stringIcNS_11char_traitsIcEENS2_IcEEEEEENS_16reverse_iteratorIPS7_EEEEEC2B7v160006ESC_, symObjAddr: 0x5664, symBinAddr: 0x100033B88, symSize: 0x30 }
  - { offsetInCU: 0x11FC2, offset: 0x41AE4, size: 0x8, addend: 0x0, symName: __ZNSt3__129_AllocatorDestroyRangeReverseINS_9allocatorINS_12basic_stringIcNS_11char_traitsIcEENS1_IcEEEEEENS_16reverse_iteratorIPS6_EEEC2B7v160006ERS7_RSA_SD_, symObjAddr: 0x5694, symBinAddr: 0x100033BB8, symSize: 0x38 }
  - { offsetInCU: 0x12019, offset: 0x41B3B, size: 0x8, addend: 0x0, symName: __ZNSt3__19allocatorINS_12basic_stringIcNS_11char_traitsIcEENS0_IcEEEEE9constructB7v160006IS5_JRKS5_EEEvPT_DpOT0_, symObjAddr: 0x56CC, symBinAddr: 0x100033BF0, symSize: 0x30 }
  - { offsetInCU: 0x12074, offset: 0x41B96, size: 0x8, addend: 0x0, symName: __ZNSt3__119__to_address_helperINS_16reverse_iteratorIPNS_12basic_stringIcNS_11char_traitsIcEENS_9allocatorIcEEEEEEvE6__callB7v160006ERKS9_, symObjAddr: 0x56FC, symBinAddr: 0x100033C20, symSize: 0x4C }
  - { offsetInCU: 0x12097, offset: 0x41BB9, size: 0x8, addend: 0x0, symName: __ZNKSt3__116reverse_iteratorIPNS_12basic_stringIcNS_11char_traitsIcEENS_9allocatorIcEEEEEptB7v160006Ev, symObjAddr: 0x5748, symBinAddr: 0x100033C6C, symSize: 0x24 }
  - { offsetInCU: 0x120BD, offset: 0x41BDF, size: 0x8, addend: 0x0, symName: __ZNSt3__128__exception_guard_exceptionsINS_29_AllocatorDestroyRangeReverseINS_9allocatorINS_12basic_stringIcNS_11char_traitsIcEENS2_IcEEEEEENS_16reverse_iteratorIPS7_EEEEED2B7v160006Ev, symObjAddr: 0x576C, symBinAddr: 0x100033C90, symSize: 0x48 }
  - { offsetInCU: 0x120E7, offset: 0x41C09, size: 0x8, addend: 0x0, symName: __ZNKSt3__129_AllocatorDestroyRangeReverseINS_9allocatorINS_12basic_stringIcNS_11char_traitsIcEENS1_IcEEEEEENS_16reverse_iteratorIPS6_EEEclB7v160006Ev, symObjAddr: 0x57B4, symBinAddr: 0x100033CD8, symSize: 0xB4 }
  - { offsetInCU: 0x1210E, offset: 0x41C30, size: 0x8, addend: 0x0, symName: __ZNSt3__116reverse_iteratorINS0_IPNS_12basic_stringIcNS_11char_traitsIcEENS_9allocatorIcEEEEEEEC1B7v160006ES8_, symObjAddr: 0x58D8, symBinAddr: 0x100033DFC, symSize: 0x3C }
  - { offsetInCU: 0x12146, offset: 0x41C68, size: 0x8, addend: 0x0, symName: __ZNSt3__116reverse_iteratorINS0_IPNS_12basic_stringIcNS_11char_traitsIcEENS_9allocatorIcEEEEEEEppB7v160006Ev, symObjAddr: 0x5998, symBinAddr: 0x100033EBC, symSize: 0x30 }
  - { offsetInCU: 0x1216C, offset: 0x41C8E, size: 0x8, addend: 0x0, symName: __ZNKSt3__116reverse_iteratorINS0_IPNS_12basic_stringIcNS_11char_traitsIcEENS_9allocatorIcEEEEEEE4baseB7v160006Ev, symObjAddr: 0x59C8, symBinAddr: 0x100033EEC, symSize: 0x24 }
  - { offsetInCU: 0x12197, offset: 0x41CB9, size: 0x8, addend: 0x0, symName: __ZNSt3__119__to_address_helperINS_16reverse_iteratorINS1_IPNS_12basic_stringIcNS_11char_traitsIcEENS_9allocatorIcEEEEEEEEvE6__callB7v160006ERKSA_, symObjAddr: 0x59EC, symBinAddr: 0x100033F10, symSize: 0x4C }
  - { offsetInCU: 0x121BA, offset: 0x41CDC, size: 0x8, addend: 0x0, symName: __ZNKSt3__116reverse_iteratorINS0_IPNS_12basic_stringIcNS_11char_traitsIcEENS_9allocatorIcEEEEEEEptB7v160006Ev, symObjAddr: 0x5A38, symBinAddr: 0x100033F5C, symSize: 0x24 }
  - { offsetInCU: 0x121E0, offset: 0x41D02, size: 0x8, addend: 0x0, symName: __ZNKSt3__116reverse_iteratorINS0_IPNS_12basic_stringIcNS_11char_traitsIcEENS_9allocatorIcEEEEEEEdeB7v160006Ev, symObjAddr: 0x5A5C, symBinAddr: 0x100033F80, symSize: 0x34 }
  - { offsetInCU: 0x12214, offset: 0x41D36, size: 0x8, addend: 0x0, symName: __ZNSt3__116reverse_iteratorIPNS_12basic_stringIcNS_11char_traitsIcEENS_9allocatorIcEEEEEmmB7v160006Ev, symObjAddr: 0x5A90, symBinAddr: 0x100033FB4, symSize: 0x20 }
  - { offsetInCU: 0x1223A, offset: 0x41D5C, size: 0x8, addend: 0x0, symName: __ZNSt3__116reverse_iteratorINS0_IPNS_12basic_stringIcNS_11char_traitsIcEENS_9allocatorIcEEEEEEEC2B7v160006ES8_, symObjAddr: 0x5AB0, symBinAddr: 0x100033FD4, symSize: 0x2C }
  - { offsetInCU: 0x12272, offset: 0x41D94, size: 0x8, addend: 0x0, symName: __ZNSt3__116reverse_iteratorIPNS_12basic_stringIcNS_11char_traitsIcEENS_9allocatorIcEEEEEC2B7v160006ES7_, symObjAddr: 0x5ADC, symBinAddr: 0x100034000, symSize: 0x28 }
  - { offsetInCU: 0x122AA, offset: 0x41DCC, size: 0x8, addend: 0x0, symName: __ZNSt3__114__split_bufferINS_12basic_stringIcNS_11char_traitsIcEENS_9allocatorIcEEEERNS4_IS6_EEED2Ev, symObjAddr: 0x5B04, symBinAddr: 0x100034028, symSize: 0x80 }
  - { offsetInCU: 0x122D6, offset: 0x41DF8, size: 0x8, addend: 0x0, symName: __ZNSt3__114__split_bufferINS_12basic_stringIcNS_11char_traitsIcEENS_9allocatorIcEEEERNS4_IS6_EEE5clearB7v160006Ev, symObjAddr: 0x5B84, symBinAddr: 0x1000340A8, symSize: 0x28 }
  - { offsetInCU: 0x122FC, offset: 0x41E1E, size: 0x8, addend: 0x0, symName: __ZNKSt3__114__split_bufferINS_12basic_stringIcNS_11char_traitsIcEENS_9allocatorIcEEEERNS4_IS6_EEE8capacityB7v160006Ev, symObjAddr: 0x5BAC, symBinAddr: 0x1000340D0, symSize: 0x40 }
  - { offsetInCU: 0x12322, offset: 0x41E44, size: 0x8, addend: 0x0, symName: __ZNSt3__114__split_bufferINS_12basic_stringIcNS_11char_traitsIcEENS_9allocatorIcEEEERNS4_IS6_EEE17__destruct_at_endB7v160006EPS6_, symObjAddr: 0x5BEC, symBinAddr: 0x100034110, symSize: 0x2C }
  - { offsetInCU: 0x12356, offset: 0x41E78, size: 0x8, addend: 0x0, symName: __ZNSt3__114__split_bufferINS_12basic_stringIcNS_11char_traitsIcEENS_9allocatorIcEEEERNS4_IS6_EEE17__destruct_at_endB7v160006EPS6_NS_17integral_constantIbLb0EEE, symObjAddr: 0x5C18, symBinAddr: 0x10003413C, symSize: 0x94 }
  - { offsetInCU: 0x12397, offset: 0x41EB9, size: 0x8, addend: 0x0, symName: __ZNKSt3__114__split_bufferINS_12basic_stringIcNS_11char_traitsIcEENS_9allocatorIcEEEERNS4_IS6_EEE9__end_capB7v160006Ev, symObjAddr: 0x5CAC, symBinAddr: 0x1000341D0, symSize: 0x28 }
  - { offsetInCU: 0x123BD, offset: 0x41EDF, size: 0x8, addend: 0x0, symName: __ZNKSt3__117__compressed_pairIPNS_12basic_stringIcNS_11char_traitsIcEENS_9allocatorIcEEEERNS4_IS6_EEE5firstB7v160006Ev, symObjAddr: 0x5CD4, symBinAddr: 0x1000341F8, symSize: 0x24 }
  - { offsetInCU: 0x12401, offset: 0x41F23, size: 0x8, addend: 0x0, symName: __ZNSt3__16vectorINS_12basic_stringIcNS_11char_traitsIcEENS_9allocatorIcEEEENS4_IS6_EEE11__make_iterB7v160006EPS6_, symObjAddr: 0x68CC, symBinAddr: 0x10003421C, symSize: 0x34 }
  - { offsetInCU: 0x12436, offset: 0x41F58, size: 0x8, addend: 0x0, symName: __ZNSt3__111__wrap_iterIPNS_12basic_stringIcNS_11char_traitsIcEENS_9allocatorIcEEEEEC1B7v160006EPKvS7_, symObjAddr: 0x6900, symBinAddr: 0x100034250, symSize: 0x3C }
  - { offsetInCU: 0x1247C, offset: 0x41F9E, size: 0x8, addend: 0x0, symName: __ZNSt3__111__wrap_iterIPNS_12basic_stringIcNS_11char_traitsIcEENS_9allocatorIcEEEEEC2B7v160006EPKvS7_, symObjAddr: 0x693C, symBinAddr: 0x10003428C, symSize: 0x24 }
  - { offsetInCU: 0x124C2, offset: 0x41FE4, size: 0x8, addend: 0x0, symName: __ZNKSt3__111__wrap_iterIPNS_12basic_stringIcNS_11char_traitsIcEENS_9allocatorIcEEEEE4baseB7v160006Ev, symObjAddr: 0x69A8, symBinAddr: 0x1000342F8, symSize: 0x18 }
  - { offsetInCU: 0x124E8, offset: 0x4200A, size: 0x8, addend: 0x0, symName: __ZNSt3__16vectorIP4MeshNS_9allocatorIS2_EEE9__end_capB7v160006Ev, symObjAddr: 0x69C0, symBinAddr: 0x100034310, symSize: 0x28 }
  - { offsetInCU: 0x1250E, offset: 0x42030, size: 0x8, addend: 0x0, symName: __ZNSt3__16vectorIP4MeshNS_9allocatorIS2_EEE22__construct_one_at_endB7v160006IJRKS2_EEEvDpOT_, symObjAddr: 0x69E8, symBinAddr: 0x100034338, symSize: 0x98 }
  - { offsetInCU: 0x1255D, offset: 0x4207F, size: 0x8, addend: 0x0, symName: __ZNSt3__16vectorIP4MeshNS_9allocatorIS2_EEE21__push_back_slow_pathIRKS2_EEvOT_, symObjAddr: 0x6A80, symBinAddr: 0x1000343D0, symSize: 0xE0 }
  - { offsetInCU: 0x125BB, offset: 0x420DD, size: 0x8, addend: 0x0, symName: __ZNSt3__117__compressed_pairIPP4MeshNS_9allocatorIS2_EEE5firstB7v160006Ev, symObjAddr: 0x6B60, symBinAddr: 0x1000344B0, symSize: 0x24 }
  - { offsetInCU: 0x125E1, offset: 0x42103, size: 0x8, addend: 0x0, symName: __ZNSt3__122__compressed_pair_elemIPP4MeshLi0ELb0EE5__getB7v160006Ev, symObjAddr: 0x6B84, symBinAddr: 0x1000344D4, symSize: 0x14 }
  - { offsetInCU: 0x12620, offset: 0x42142, size: 0x8, addend: 0x0, symName: __ZNSt3__16vectorIP4MeshNS_9allocatorIS2_EEE21_ConstructTransactionC1B7v160006ERS5_m, symObjAddr: 0x6B98, symBinAddr: 0x1000344E8, symSize: 0x3C }
  - { offsetInCU: 0x12668, offset: 0x4218A, size: 0x8, addend: 0x0, symName: __ZNSt3__116allocator_traitsINS_9allocatorIP4MeshEEE9constructB7v160006IS3_JRKS3_EvEEvRS4_PT_DpOT0_, symObjAddr: 0x6BD4, symBinAddr: 0x100034524, symSize: 0x34 }
  - { offsetInCU: 0x126BF, offset: 0x421E1, size: 0x8, addend: 0x0, symName: __ZNSt3__16vectorIP4MeshNS_9allocatorIS2_EEE21_ConstructTransactionD1B7v160006Ev, symObjAddr: 0x6C08, symBinAddr: 0x100034558, symSize: 0x2C }
  - { offsetInCU: 0x126E9, offset: 0x4220B, size: 0x8, addend: 0x0, symName: __ZNSt3__16vectorIP4MeshNS_9allocatorIS2_EEE21_ConstructTransactionC2B7v160006ERS5_m, symObjAddr: 0x6C34, symBinAddr: 0x100034584, symSize: 0x44 }
  - { offsetInCU: 0x12731, offset: 0x42253, size: 0x8, addend: 0x0, symName: __ZNSt3__19allocatorIP4MeshE9constructB7v160006IS2_JRKS2_EEEvPT_DpOT0_, symObjAddr: 0x6C78, symBinAddr: 0x1000345C8, symSize: 0x28 }
  - { offsetInCU: 0x12787, offset: 0x422A9, size: 0x8, addend: 0x0, symName: __ZNSt3__16vectorIP4MeshNS_9allocatorIS2_EEE21_ConstructTransactionD2B7v160006Ev, symObjAddr: 0x6CA0, symBinAddr: 0x1000345F0, symSize: 0x20 }
  - { offsetInCU: 0x127B1, offset: 0x422D3, size: 0x8, addend: 0x0, symName: __ZNKSt3__16vectorIP4MeshNS_9allocatorIS2_EEE11__recommendB7v160006Em, symObjAddr: 0x6CC0, symBinAddr: 0x100034610, symSize: 0xB4 }
  - { offsetInCU: 0x12806, offset: 0x42328, size: 0x8, addend: 0x0, symName: __ZNSt3__114__split_bufferIP4MeshRNS_9allocatorIS2_EEEC1EmmS5_, symObjAddr: 0x6D74, symBinAddr: 0x1000346C4, symSize: 0x44 }
  - { offsetInCU: 0x1285C, offset: 0x4237E, size: 0x8, addend: 0x0, symName: __ZNSt3__114__split_bufferIP4MeshRNS_9allocatorIS2_EEED1Ev, symObjAddr: 0x6ED0, symBinAddr: 0x100034820, symSize: 0x2C }
  - { offsetInCU: 0x12888, offset: 0x423AA, size: 0x8, addend: 0x0, symName: __ZNKSt3__16vectorIP4MeshNS_9allocatorIS2_EEE8max_sizeEv, symObjAddr: 0x6EFC, symBinAddr: 0x10003484C, symSize: 0x74 }
  - { offsetInCU: 0x128B0, offset: 0x423D2, size: 0x8, addend: 0x0, symName: __ZNKSt3__16vectorIP4MeshNS_9allocatorIS2_EEE20__throw_length_errorB7v160006Ev, symObjAddr: 0x6F70, symBinAddr: 0x1000348C0, symSize: 0x1C }
  - { offsetInCU: 0x128E0, offset: 0x42402, size: 0x8, addend: 0x0, symName: __ZNSt3__116allocator_traitsINS_9allocatorIP4MeshEEE8max_sizeB7v160006IS4_vEEmRKS4_, symObjAddr: 0x6F8C, symBinAddr: 0x1000348DC, symSize: 0x24 }
  - { offsetInCU: 0x1290E, offset: 0x42430, size: 0x8, addend: 0x0, symName: __ZNKSt3__16vectorIP4MeshNS_9allocatorIS2_EEE7__allocB7v160006Ev, symObjAddr: 0x6FB0, symBinAddr: 0x100034900, symSize: 0x28 }
  - { offsetInCU: 0x12934, offset: 0x42456, size: 0x8, addend: 0x0, symName: __ZNKSt3__19allocatorIP4MeshE8max_sizeB7v160006Ev, symObjAddr: 0x6FD8, symBinAddr: 0x100034928, symSize: 0x14 }
  - { offsetInCU: 0x1295A, offset: 0x4247C, size: 0x8, addend: 0x0, symName: __ZNKSt3__117__compressed_pairIPP4MeshNS_9allocatorIS2_EEE6secondB7v160006Ev, symObjAddr: 0x6FEC, symBinAddr: 0x10003493C, symSize: 0x24 }
  - { offsetInCU: 0x12980, offset: 0x424A2, size: 0x8, addend: 0x0, symName: __ZNKSt3__122__compressed_pair_elemINS_9allocatorIP4MeshEELi1ELb1EE5__getB7v160006Ev, symObjAddr: 0x7010, symBinAddr: 0x100034960, symSize: 0x14 }
  - { offsetInCU: 0x129A6, offset: 0x424C8, size: 0x8, addend: 0x0, symName: __ZNSt3__114__split_bufferIP4MeshRNS_9allocatorIS2_EEEC2EmmS5_, symObjAddr: 0x7024, symBinAddr: 0x100034974, symSize: 0xD4 }
  - { offsetInCU: 0x12A1A, offset: 0x4253C, size: 0x8, addend: 0x0, symName: __ZNSt3__117__compressed_pairIPP4MeshRNS_9allocatorIS2_EEEC1B7v160006IDnS6_EEOT_OT0_, symObjAddr: 0x70F8, symBinAddr: 0x100034A48, symSize: 0x3C }
  - { offsetInCU: 0x12A72, offset: 0x42594, size: 0x8, addend: 0x0, symName: __ZNSt3__114__split_bufferIP4MeshRNS_9allocatorIS2_EEE7__allocB7v160006Ev, symObjAddr: 0x7174, symBinAddr: 0x100034AC4, symSize: 0x28 }
  - { offsetInCU: 0x12A98, offset: 0x425BA, size: 0x8, addend: 0x0, symName: __ZNSt3__114__split_bufferIP4MeshRNS_9allocatorIS2_EEE9__end_capB7v160006Ev, symObjAddr: 0x719C, symBinAddr: 0x100034AEC, symSize: 0x28 }
  - { offsetInCU: 0x12ABE, offset: 0x425E0, size: 0x8, addend: 0x0, symName: __ZNSt3__117__compressed_pairIPP4MeshRNS_9allocatorIS2_EEEC2B7v160006IDnS6_EEOT_OT0_, symObjAddr: 0x71C4, symBinAddr: 0x100034B14, symSize: 0x48 }
  - { offsetInCU: 0x12B16, offset: 0x42638, size: 0x8, addend: 0x0, symName: __ZNSt3__122__compressed_pair_elemIRNS_9allocatorIP4MeshEELi1ELb0EEC2B7v160006IS5_vEEOT_, symObjAddr: 0x720C, symBinAddr: 0x100034B5C, symSize: 0x20 }
  - { offsetInCU: 0x12B58, offset: 0x4267A, size: 0x8, addend: 0x0, symName: __ZNSt3__19allocatorIP4MeshE8allocateB7v160006Em, symObjAddr: 0x722C, symBinAddr: 0x100034B7C, symSize: 0x84 }
  - { offsetInCU: 0x12B8C, offset: 0x426AE, size: 0x8, addend: 0x0, symName: __ZNSt3__117__compressed_pairIPP4MeshRNS_9allocatorIS2_EEE6secondB7v160006Ev, symObjAddr: 0x72B0, symBinAddr: 0x100034C00, symSize: 0x28 }
  - { offsetInCU: 0x12BB2, offset: 0x426D4, size: 0x8, addend: 0x0, symName: __ZNSt3__122__compressed_pair_elemIRNS_9allocatorIP4MeshEELi1ELb0EE5__getB7v160006Ev, symObjAddr: 0x72D8, symBinAddr: 0x100034C28, symSize: 0x18 }
  - { offsetInCU: 0x12BD8, offset: 0x426FA, size: 0x8, addend: 0x0, symName: __ZNSt3__117__compressed_pairIPP4MeshRNS_9allocatorIS2_EEE5firstB7v160006Ev, symObjAddr: 0x72F0, symBinAddr: 0x100034C40, symSize: 0x24 }
  - { offsetInCU: 0x12BFE, offset: 0x42720, size: 0x8, addend: 0x0, symName: __ZNSt3__116reverse_iteratorIPP4MeshEC1B7v160006ES3_, symObjAddr: 0x73FC, symBinAddr: 0x100034D4C, symSize: 0x34 }
  - { offsetInCU: 0x12C36, offset: 0x42758, size: 0x8, addend: 0x0, symName: __ZNKSt3__116reverse_iteratorIPP4MeshE4baseB7v160006Ev, symObjAddr: 0x7430, symBinAddr: 0x100034D80, symSize: 0x18 }
  - { offsetInCU: 0x12C5C, offset: 0x4277E, size: 0x8, addend: 0x0, symName: __ZNKSt3__16vectorIP4MeshNS_9allocatorIS2_EEE14__annotate_newB7v160006Em, symObjAddr: 0x7484, symBinAddr: 0x100034DD4, symSize: 0xAC }
  - { offsetInCU: 0x12C91, offset: 0x427B3, size: 0x8, addend: 0x0, symName: __ZNKSt3__116reverse_iteratorIPP4MeshEdeB7v160006Ev, symObjAddr: 0x75D8, symBinAddr: 0x100034F28, symSize: 0x28 }
  - { offsetInCU: 0x12CC5, offset: 0x427E7, size: 0x8, addend: 0x0, symName: __ZNSt3__116reverse_iteratorIPP4MeshEppB7v160006Ev, symObjAddr: 0x7600, symBinAddr: 0x100034F50, symSize: 0x20 }
  - { offsetInCU: 0x12CF0, offset: 0x42812, size: 0x8, addend: 0x0, symName: __ZNSt3__119__to_address_helperINS_16reverse_iteratorIPP4MeshEEvE6__callB7v160006ERKS5_, symObjAddr: 0x7698, symBinAddr: 0x100034FE8, symSize: 0x4C }
  - { offsetInCU: 0x12D13, offset: 0x42835, size: 0x8, addend: 0x0, symName: __ZNKSt3__116reverse_iteratorIPP4MeshEptB7v160006Ev, symObjAddr: 0x76E4, symBinAddr: 0x100035034, symSize: 0x24 }
  - { offsetInCU: 0x12D5D, offset: 0x4287F, size: 0x8, addend: 0x0, symName: __ZNKSt3__111__move_loopINS_17_ClassicAlgPolicyEEclB7v160006INS_16reverse_iteratorIPP4MeshEES8_S8_EENS_4pairIT_T1_EESA_T0_SB_, symObjAddr: 0x7998, symBinAddr: 0x1000352E8, symSize: 0xA0 }
  - { offsetInCU: 0x12DCE, offset: 0x428F0, size: 0x8, addend: 0x0, symName: __ZNSt3__18_IterOpsINS_17_ClassicAlgPolicyEE11__iter_moveB7v160006IRNS_16reverse_iteratorIPP4MeshEEEENS_9enable_ifIXsr12is_referenceIDTdeclsr3stdE7declvalIRT_EEEEE5valueEDTclsr3stdE4movedeclsr3stdE7declvalISC_EEEEE4typeEOSB_, symObjAddr: 0x7B98, symBinAddr: 0x1000354E8, symSize: 0x28 }
  - { offsetInCU: 0x12DFA, offset: 0x4291C, size: 0x8, addend: 0x0, symName: __ZNSt3__18_IterOpsINS_17_ClassicAlgPolicyEE25__validate_iter_referenceB7v160006IRNS_16reverse_iteratorIPP4MeshEEEEvv, symObjAddr: 0x7BC0, symBinAddr: 0x100035510, symSize: 0x4 }
  - { offsetInCU: 0x12E18, offset: 0x4293A, size: 0x8, addend: 0x0, symName: __ZNSt3__118__unwrap_iter_implINS_16reverse_iteratorIPP4MeshEELb0EE8__unwrapB7v160006ES5_, symObjAddr: 0x7BC4, symBinAddr: 0x100035514, symSize: 0x24 }
  - { offsetInCU: 0x12E3B, offset: 0x4295D, size: 0x8, addend: 0x0, symName: __ZNSt3__14pairINS_16reverse_iteratorIPP4MeshEES5_EC1B7v160006ERKS5_S8_, symObjAddr: 0x7BE8, symBinAddr: 0x100035538, symSize: 0x3C }
  - { offsetInCU: 0x12E81, offset: 0x429A3, size: 0x8, addend: 0x0, symName: __ZNSt3__14pairINS_16reverse_iteratorIPP4MeshEES5_EC2B7v160006ERKS5_S8_, symObjAddr: 0x7C24, symBinAddr: 0x100035574, symSize: 0x34 }
  - { offsetInCU: 0x12EC7, offset: 0x429E9, size: 0x8, addend: 0x0, symName: __ZNSt3__118__unwrap_iter_implINS_16reverse_iteratorIPP4MeshEELb0EE8__rewrapB7v160006ES5_S5_, symObjAddr: 0x7C58, symBinAddr: 0x1000355A8, symSize: 0x2C }
  - { offsetInCU: 0x12EF5, offset: 0x42A17, size: 0x8, addend: 0x0, symName: __ZNSt3__116reverse_iteratorIPP4MeshEC2B7v160006ES3_, symObjAddr: 0x7C84, symBinAddr: 0x1000355D4, symSize: 0x28 }
  - { offsetInCU: 0x12F2D, offset: 0x42A4F, size: 0x8, addend: 0x0, symName: __ZNSt3__114__split_bufferIP4MeshRNS_9allocatorIS2_EEED2Ev, symObjAddr: 0x7CAC, symBinAddr: 0x1000355FC, symSize: 0x80 }
  - { offsetInCU: 0x12F59, offset: 0x42A7B, size: 0x8, addend: 0x0, symName: __ZNSt3__114__split_bufferIP4MeshRNS_9allocatorIS2_EEE5clearB7v160006Ev, symObjAddr: 0x7D2C, symBinAddr: 0x10003567C, symSize: 0x28 }
  - { offsetInCU: 0x12F7F, offset: 0x42AA1, size: 0x8, addend: 0x0, symName: __ZNKSt3__114__split_bufferIP4MeshRNS_9allocatorIS2_EEE8capacityB7v160006Ev, symObjAddr: 0x7D54, symBinAddr: 0x1000356A4, symSize: 0x40 }
  - { offsetInCU: 0x12FA5, offset: 0x42AC7, size: 0x8, addend: 0x0, symName: __ZNSt3__114__split_bufferIP4MeshRNS_9allocatorIS2_EEE17__destruct_at_endB7v160006EPS2_, symObjAddr: 0x7D94, symBinAddr: 0x1000356E4, symSize: 0x2C }
  - { offsetInCU: 0x12FD9, offset: 0x42AFB, size: 0x8, addend: 0x0, symName: __ZNSt3__114__split_bufferIP4MeshRNS_9allocatorIS2_EEE17__destruct_at_endB7v160006EPS2_NS_17integral_constantIbLb0EEE, symObjAddr: 0x7DC0, symBinAddr: 0x100035710, symSize: 0x94 }
  - { offsetInCU: 0x1301A, offset: 0x42B3C, size: 0x8, addend: 0x0, symName: __ZNKSt3__114__split_bufferIP4MeshRNS_9allocatorIS2_EEE9__end_capB7v160006Ev, symObjAddr: 0x7E54, symBinAddr: 0x1000357A4, symSize: 0x28 }
  - { offsetInCU: 0x13040, offset: 0x42B62, size: 0x8, addend: 0x0, symName: __ZNKSt3__117__compressed_pairIPP4MeshRNS_9allocatorIS2_EEE5firstB7v160006Ev, symObjAddr: 0x7E7C, symBinAddr: 0x1000357CC, symSize: 0x24 }
  - { offsetInCU: 0x13066, offset: 0x42B88, size: 0x8, addend: 0x0, symName: __ZNSt3__16vectorIP6ShaderNS_9allocatorIS2_EEE9__end_capB7v160006Ev, symObjAddr: 0x7EA0, symBinAddr: 0x1000357F0, symSize: 0x28 }
  - { offsetInCU: 0x1308C, offset: 0x42BAE, size: 0x8, addend: 0x0, symName: __ZNSt3__16vectorIP6ShaderNS_9allocatorIS2_EEE22__construct_one_at_endB7v160006IJRKS2_EEEvDpOT_, symObjAddr: 0x7EC8, symBinAddr: 0x100035818, symSize: 0x98 }
  - { offsetInCU: 0x130DB, offset: 0x42BFD, size: 0x8, addend: 0x0, symName: __ZNSt3__16vectorIP6ShaderNS_9allocatorIS2_EEE21__push_back_slow_pathIRKS2_EEvOT_, symObjAddr: 0x7F60, symBinAddr: 0x1000358B0, symSize: 0xE0 }
  - { offsetInCU: 0x13139, offset: 0x42C5B, size: 0x8, addend: 0x0, symName: __ZNSt3__117__compressed_pairIPP6ShaderNS_9allocatorIS2_EEE5firstB7v160006Ev, symObjAddr: 0x8040, symBinAddr: 0x100035990, symSize: 0x24 }
  - { offsetInCU: 0x1315F, offset: 0x42C81, size: 0x8, addend: 0x0, symName: __ZNSt3__122__compressed_pair_elemIPP6ShaderLi0ELb0EE5__getB7v160006Ev, symObjAddr: 0x8064, symBinAddr: 0x1000359B4, symSize: 0x14 }
  - { offsetInCU: 0x1319E, offset: 0x42CC0, size: 0x8, addend: 0x0, symName: __ZNSt3__16vectorIP6ShaderNS_9allocatorIS2_EEE21_ConstructTransactionC1B7v160006ERS5_m, symObjAddr: 0x8078, symBinAddr: 0x1000359C8, symSize: 0x3C }
  - { offsetInCU: 0x131E6, offset: 0x42D08, size: 0x8, addend: 0x0, symName: __ZNSt3__116allocator_traitsINS_9allocatorIP6ShaderEEE9constructB7v160006IS3_JRKS3_EvEEvRS4_PT_DpOT0_, symObjAddr: 0x80B4, symBinAddr: 0x100035A04, symSize: 0x34 }
  - { offsetInCU: 0x1323D, offset: 0x42D5F, size: 0x8, addend: 0x0, symName: __ZNSt3__16vectorIP6ShaderNS_9allocatorIS2_EEE21_ConstructTransactionD1B7v160006Ev, symObjAddr: 0x80E8, symBinAddr: 0x100035A38, symSize: 0x2C }
  - { offsetInCU: 0x13267, offset: 0x42D89, size: 0x8, addend: 0x0, symName: __ZNSt3__16vectorIP6ShaderNS_9allocatorIS2_EEE21_ConstructTransactionC2B7v160006ERS5_m, symObjAddr: 0x8114, symBinAddr: 0x100035A64, symSize: 0x44 }
  - { offsetInCU: 0x132AF, offset: 0x42DD1, size: 0x8, addend: 0x0, symName: __ZNSt3__19allocatorIP6ShaderE9constructB7v160006IS2_JRKS2_EEEvPT_DpOT0_, symObjAddr: 0x8158, symBinAddr: 0x100035AA8, symSize: 0x28 }
  - { offsetInCU: 0x13305, offset: 0x42E27, size: 0x8, addend: 0x0, symName: __ZNSt3__16vectorIP6ShaderNS_9allocatorIS2_EEE21_ConstructTransactionD2B7v160006Ev, symObjAddr: 0x8180, symBinAddr: 0x100035AD0, symSize: 0x20 }
  - { offsetInCU: 0x1332F, offset: 0x42E51, size: 0x8, addend: 0x0, symName: __ZNKSt3__16vectorIP6ShaderNS_9allocatorIS2_EEE11__recommendB7v160006Em, symObjAddr: 0x81A0, symBinAddr: 0x100035AF0, symSize: 0xB4 }
  - { offsetInCU: 0x13384, offset: 0x42EA6, size: 0x8, addend: 0x0, symName: __ZNSt3__114__split_bufferIP6ShaderRNS_9allocatorIS2_EEEC1EmmS5_, symObjAddr: 0x8254, symBinAddr: 0x100035BA4, symSize: 0x44 }
  - { offsetInCU: 0x133DA, offset: 0x42EFC, size: 0x8, addend: 0x0, symName: __ZNSt3__114__split_bufferIP6ShaderRNS_9allocatorIS2_EEED1Ev, symObjAddr: 0x83B0, symBinAddr: 0x100035D00, symSize: 0x2C }
  - { offsetInCU: 0x13406, offset: 0x42F28, size: 0x8, addend: 0x0, symName: __ZNKSt3__16vectorIP6ShaderNS_9allocatorIS2_EEE8max_sizeEv, symObjAddr: 0x83DC, symBinAddr: 0x100035D2C, symSize: 0x74 }
  - { offsetInCU: 0x1342E, offset: 0x42F50, size: 0x8, addend: 0x0, symName: __ZNKSt3__16vectorIP6ShaderNS_9allocatorIS2_EEE20__throw_length_errorB7v160006Ev, symObjAddr: 0x8450, symBinAddr: 0x100035DA0, symSize: 0x1C }
  - { offsetInCU: 0x1345E, offset: 0x42F80, size: 0x8, addend: 0x0, symName: __ZNSt3__116allocator_traitsINS_9allocatorIP6ShaderEEE8max_sizeB7v160006IS4_vEEmRKS4_, symObjAddr: 0x846C, symBinAddr: 0x100035DBC, symSize: 0x24 }
  - { offsetInCU: 0x1348C, offset: 0x42FAE, size: 0x8, addend: 0x0, symName: __ZNKSt3__16vectorIP6ShaderNS_9allocatorIS2_EEE7__allocB7v160006Ev, symObjAddr: 0x8490, symBinAddr: 0x100035DE0, symSize: 0x28 }
  - { offsetInCU: 0x134B2, offset: 0x42FD4, size: 0x8, addend: 0x0, symName: __ZNKSt3__19allocatorIP6ShaderE8max_sizeB7v160006Ev, symObjAddr: 0x84B8, symBinAddr: 0x100035E08, symSize: 0x14 }
  - { offsetInCU: 0x134D8, offset: 0x42FFA, size: 0x8, addend: 0x0, symName: __ZNKSt3__117__compressed_pairIPP6ShaderNS_9allocatorIS2_EEE6secondB7v160006Ev, symObjAddr: 0x84CC, symBinAddr: 0x100035E1C, symSize: 0x24 }
  - { offsetInCU: 0x134FE, offset: 0x43020, size: 0x8, addend: 0x0, symName: __ZNKSt3__122__compressed_pair_elemINS_9allocatorIP6ShaderEELi1ELb1EE5__getB7v160006Ev, symObjAddr: 0x84F0, symBinAddr: 0x100035E40, symSize: 0x14 }
  - { offsetInCU: 0x13524, offset: 0x43046, size: 0x8, addend: 0x0, symName: __ZNSt3__114__split_bufferIP6ShaderRNS_9allocatorIS2_EEEC2EmmS5_, symObjAddr: 0x8504, symBinAddr: 0x100035E54, symSize: 0xD4 }
  - { offsetInCU: 0x13598, offset: 0x430BA, size: 0x8, addend: 0x0, symName: __ZNSt3__117__compressed_pairIPP6ShaderRNS_9allocatorIS2_EEEC1B7v160006IDnS6_EEOT_OT0_, symObjAddr: 0x85D8, symBinAddr: 0x100035F28, symSize: 0x3C }
  - { offsetInCU: 0x135F0, offset: 0x43112, size: 0x8, addend: 0x0, symName: __ZNSt3__114__split_bufferIP6ShaderRNS_9allocatorIS2_EEE7__allocB7v160006Ev, symObjAddr: 0x8654, symBinAddr: 0x100035FA4, symSize: 0x28 }
  - { offsetInCU: 0x13616, offset: 0x43138, size: 0x8, addend: 0x0, symName: __ZNSt3__114__split_bufferIP6ShaderRNS_9allocatorIS2_EEE9__end_capB7v160006Ev, symObjAddr: 0x867C, symBinAddr: 0x100035FCC, symSize: 0x28 }
  - { offsetInCU: 0x1363C, offset: 0x4315E, size: 0x8, addend: 0x0, symName: __ZNSt3__117__compressed_pairIPP6ShaderRNS_9allocatorIS2_EEEC2B7v160006IDnS6_EEOT_OT0_, symObjAddr: 0x86A4, symBinAddr: 0x100035FF4, symSize: 0x48 }
  - { offsetInCU: 0x13694, offset: 0x431B6, size: 0x8, addend: 0x0, symName: __ZNSt3__122__compressed_pair_elemIRNS_9allocatorIP6ShaderEELi1ELb0EEC2B7v160006IS5_vEEOT_, symObjAddr: 0x86EC, symBinAddr: 0x10003603C, symSize: 0x20 }
  - { offsetInCU: 0x136D6, offset: 0x431F8, size: 0x8, addend: 0x0, symName: __ZNSt3__19allocatorIP6ShaderE8allocateB7v160006Em, symObjAddr: 0x870C, symBinAddr: 0x10003605C, symSize: 0x84 }
  - { offsetInCU: 0x1370A, offset: 0x4322C, size: 0x8, addend: 0x0, symName: __ZNSt3__117__compressed_pairIPP6ShaderRNS_9allocatorIS2_EEE6secondB7v160006Ev, symObjAddr: 0x8790, symBinAddr: 0x1000360E0, symSize: 0x28 }
  - { offsetInCU: 0x13730, offset: 0x43252, size: 0x8, addend: 0x0, symName: __ZNSt3__122__compressed_pair_elemIRNS_9allocatorIP6ShaderEELi1ELb0EE5__getB7v160006Ev, symObjAddr: 0x87B8, symBinAddr: 0x100036108, symSize: 0x18 }
  - { offsetInCU: 0x13756, offset: 0x43278, size: 0x8, addend: 0x0, symName: __ZNSt3__117__compressed_pairIPP6ShaderRNS_9allocatorIS2_EEE5firstB7v160006Ev, symObjAddr: 0x87D0, symBinAddr: 0x100036120, symSize: 0x24 }
  - { offsetInCU: 0x1377C, offset: 0x4329E, size: 0x8, addend: 0x0, symName: __ZNSt3__116reverse_iteratorIPP6ShaderEC1B7v160006ES3_, symObjAddr: 0x88DC, symBinAddr: 0x10003622C, symSize: 0x34 }
  - { offsetInCU: 0x137B4, offset: 0x432D6, size: 0x8, addend: 0x0, symName: __ZNKSt3__116reverse_iteratorIPP6ShaderE4baseB7v160006Ev, symObjAddr: 0x8910, symBinAddr: 0x100036260, symSize: 0x18 }
  - { offsetInCU: 0x137DA, offset: 0x432FC, size: 0x8, addend: 0x0, symName: __ZNKSt3__16vectorIP6ShaderNS_9allocatorIS2_EEE14__annotate_newB7v160006Em, symObjAddr: 0x8964, symBinAddr: 0x1000362B4, symSize: 0xAC }
  - { offsetInCU: 0x1380F, offset: 0x43331, size: 0x8, addend: 0x0, symName: __ZNKSt3__116reverse_iteratorIPP6ShaderEdeB7v160006Ev, symObjAddr: 0x8AB8, symBinAddr: 0x100036408, symSize: 0x28 }
  - { offsetInCU: 0x13843, offset: 0x43365, size: 0x8, addend: 0x0, symName: __ZNSt3__116reverse_iteratorIPP6ShaderEppB7v160006Ev, symObjAddr: 0x8AE0, symBinAddr: 0x100036430, symSize: 0x20 }
  - { offsetInCU: 0x1386E, offset: 0x43390, size: 0x8, addend: 0x0, symName: __ZNSt3__119__to_address_helperINS_16reverse_iteratorIPP6ShaderEEvE6__callB7v160006ERKS5_, symObjAddr: 0x8B78, symBinAddr: 0x1000364C8, symSize: 0x4C }
  - { offsetInCU: 0x13891, offset: 0x433B3, size: 0x8, addend: 0x0, symName: __ZNKSt3__116reverse_iteratorIPP6ShaderEptB7v160006Ev, symObjAddr: 0x8BC4, symBinAddr: 0x100036514, symSize: 0x24 }
  - { offsetInCU: 0x138D1, offset: 0x433F3, size: 0x8, addend: 0x0, symName: __ZNKSt3__111__move_loopINS_17_ClassicAlgPolicyEEclB7v160006INS_16reverse_iteratorIPP6ShaderEES8_S8_EENS_4pairIT_T1_EESA_T0_SB_, symObjAddr: 0x8E78, symBinAddr: 0x1000367C8, symSize: 0xA0 }
  - { offsetInCU: 0x13942, offset: 0x43464, size: 0x8, addend: 0x0, symName: __ZNSt3__18_IterOpsINS_17_ClassicAlgPolicyEE11__iter_moveB7v160006IRNS_16reverse_iteratorIPP6ShaderEEEENS_9enable_ifIXsr12is_referenceIDTdeclsr3stdE7declvalIRT_EEEEE5valueEDTclsr3stdE4movedeclsr3stdE7declvalISC_EEEEE4typeEOSB_, symObjAddr: 0x9078, symBinAddr: 0x1000369C8, symSize: 0x28 }
  - { offsetInCU: 0x1396E, offset: 0x43490, size: 0x8, addend: 0x0, symName: __ZNSt3__18_IterOpsINS_17_ClassicAlgPolicyEE25__validate_iter_referenceB7v160006IRNS_16reverse_iteratorIPP6ShaderEEEEvv, symObjAddr: 0x90A0, symBinAddr: 0x1000369F0, symSize: 0x4 }
  - { offsetInCU: 0x1398C, offset: 0x434AE, size: 0x8, addend: 0x0, symName: __ZNSt3__118__unwrap_iter_implINS_16reverse_iteratorIPP6ShaderEELb0EE8__unwrapB7v160006ES5_, symObjAddr: 0x90A4, symBinAddr: 0x1000369F4, symSize: 0x24 }
  - { offsetInCU: 0x139AF, offset: 0x434D1, size: 0x8, addend: 0x0, symName: __ZNSt3__14pairINS_16reverse_iteratorIPP6ShaderEES5_EC1B7v160006ERKS5_S8_, symObjAddr: 0x90C8, symBinAddr: 0x100036A18, symSize: 0x3C }
  - { offsetInCU: 0x139F5, offset: 0x43517, size: 0x8, addend: 0x0, symName: __ZNSt3__14pairINS_16reverse_iteratorIPP6ShaderEES5_EC2B7v160006ERKS5_S8_, symObjAddr: 0x9104, symBinAddr: 0x100036A54, symSize: 0x34 }
  - { offsetInCU: 0x13A3B, offset: 0x4355D, size: 0x8, addend: 0x0, symName: __ZNSt3__118__unwrap_iter_implINS_16reverse_iteratorIPP6ShaderEELb0EE8__rewrapB7v160006ES5_S5_, symObjAddr: 0x9138, symBinAddr: 0x100036A88, symSize: 0x2C }
  - { offsetInCU: 0x13A69, offset: 0x4358B, size: 0x8, addend: 0x0, symName: __ZNSt3__116reverse_iteratorIPP6ShaderEC2B7v160006ES3_, symObjAddr: 0x9164, symBinAddr: 0x100036AB4, symSize: 0x28 }
  - { offsetInCU: 0x13AA1, offset: 0x435C3, size: 0x8, addend: 0x0, symName: __ZNSt3__114__split_bufferIP6ShaderRNS_9allocatorIS2_EEED2Ev, symObjAddr: 0x918C, symBinAddr: 0x100036ADC, symSize: 0x80 }
  - { offsetInCU: 0x13ACD, offset: 0x435EF, size: 0x8, addend: 0x0, symName: __ZNSt3__114__split_bufferIP6ShaderRNS_9allocatorIS2_EEE5clearB7v160006Ev, symObjAddr: 0x920C, symBinAddr: 0x100036B5C, symSize: 0x28 }
  - { offsetInCU: 0x13AF3, offset: 0x43615, size: 0x8, addend: 0x0, symName: __ZNKSt3__114__split_bufferIP6ShaderRNS_9allocatorIS2_EEE8capacityB7v160006Ev, symObjAddr: 0x9234, symBinAddr: 0x100036B84, symSize: 0x40 }
  - { offsetInCU: 0x13B19, offset: 0x4363B, size: 0x8, addend: 0x0, symName: __ZNSt3__114__split_bufferIP6ShaderRNS_9allocatorIS2_EEE17__destruct_at_endB7v160006EPS2_, symObjAddr: 0x9274, symBinAddr: 0x100036BC4, symSize: 0x2C }
  - { offsetInCU: 0x13B4D, offset: 0x4366F, size: 0x8, addend: 0x0, symName: __ZNSt3__114__split_bufferIP6ShaderRNS_9allocatorIS2_EEE17__destruct_at_endB7v160006EPS2_NS_17integral_constantIbLb0EEE, symObjAddr: 0x92A0, symBinAddr: 0x100036BF0, symSize: 0x94 }
  - { offsetInCU: 0x13B8E, offset: 0x436B0, size: 0x8, addend: 0x0, symName: __ZNKSt3__114__split_bufferIP6ShaderRNS_9allocatorIS2_EEE9__end_capB7v160006Ev, symObjAddr: 0x9334, symBinAddr: 0x100036C84, symSize: 0x28 }
  - { offsetInCU: 0x13BB4, offset: 0x436D6, size: 0x8, addend: 0x0, symName: __ZNKSt3__117__compressed_pairIPP6ShaderRNS_9allocatorIS2_EEE5firstB7v160006Ev, symObjAddr: 0x935C, symBinAddr: 0x100036CAC, symSize: 0x24 }
  - { offsetInCU: 0x13BDA, offset: 0x436FC, size: 0x8, addend: 0x0, symName: __ZNSt3__16vectorIjNS_9allocatorIjEEEC2Em, symObjAddr: 0x9380, symBinAddr: 0x100036CD0, symSize: 0xE8 }
  - { offsetInCU: 0x13C2A, offset: 0x4374C, size: 0x8, addend: 0x0, symName: __ZNSt3__16vectorIjNS_9allocatorIjEEE11__vallocateB7v160006Em, symObjAddr: 0x9528, symBinAddr: 0x100036DF8, symSize: 0xAC }
  - { offsetInCU: 0x13C6E, offset: 0x43790, size: 0x8, addend: 0x0, symName: __ZNSt3__16vectorIjNS_9allocatorIjEEE18__construct_at_endEm, symObjAddr: 0x95D4, symBinAddr: 0x100036EA4, symSize: 0xD0 }
  - { offsetInCU: 0x13CE1, offset: 0x43803, size: 0x8, addend: 0x0, symName: __ZNSt3__128__exception_guard_exceptionsINS_6vectorIjNS_9allocatorIjEEE16__destroy_vectorEE10__completeB7v160006Ev, symObjAddr: 0x96A4, symBinAddr: 0x100036F74, symSize: 0x1C }
  - { offsetInCU: 0x13D07, offset: 0x43829, size: 0x8, addend: 0x0, symName: __ZNSt3__128__exception_guard_exceptionsINS_6vectorIjNS_9allocatorIjEEE16__destroy_vectorEED1B7v160006Ev, symObjAddr: 0x96C0, symBinAddr: 0x100036F90, symSize: 0x2C }
  - { offsetInCU: 0x13D31, offset: 0x43853, size: 0x8, addend: 0x0, symName: __ZNSt3__128__exception_guard_exceptionsINS_6vectorIjNS_9allocatorIjEEE16__destroy_vectorEEC1B7v160006ES5_, symObjAddr: 0x97B4, symBinAddr: 0x100036FBC, symSize: 0x34 }
  - { offsetInCU: 0x13D69, offset: 0x4388B, size: 0x8, addend: 0x0, symName: __ZNSt3__128__exception_guard_exceptionsINS_6vectorIjNS_9allocatorIjEEE16__destroy_vectorEEC2B7v160006ES5_, symObjAddr: 0x97E8, symBinAddr: 0x100036FF0, symSize: 0x24 }
  - { offsetInCU: 0x13DC4, offset: 0x438E6, size: 0x8, addend: 0x0, symName: __ZNSt3__116allocator_traitsINS_9allocatorIjEEE9constructB7v160006IjJEvEEvRS2_PT_DpOT0_, symObjAddr: 0x9CBC, symBinAddr: 0x100037014, symSize: 0x2C }
  - { offsetInCU: 0x13E06, offset: 0x43928, size: 0x8, addend: 0x0, symName: __ZNSt3__19allocatorIjE9constructB7v160006IjJEEEvPT_DpOT0_, symObjAddr: 0x9D58, symBinAddr: 0x100037040, symSize: 0x1C }
  - { offsetInCU: 0x13E48, offset: 0x4396A, size: 0x8, addend: 0x0, symName: __ZNSt3__128__exception_guard_exceptionsINS_6vectorIjNS_9allocatorIjEEE16__destroy_vectorEED2B7v160006Ev, symObjAddr: 0x9D94, symBinAddr: 0x10003705C, symSize: 0x48 }
  - { offsetInCU: 0x13E72, offset: 0x43994, size: 0x8, addend: 0x0, symName: __ZNSt3__114numeric_limitsIfE7epsilonB7v160006Ev, symObjAddr: 0xA45C, symBinAddr: 0x100037328, symSize: 0x14 }
  - { offsetInCU: 0x13E85, offset: 0x439A7, size: 0x8, addend: 0x0, symName: __Z3tanB7v160006f, symObjAddr: 0xA470, symBinAddr: 0x10003733C, symSize: 0x24 }
  - { offsetInCU: 0x13EB4, offset: 0x439D6, size: 0x8, addend: 0x0, symName: __ZN3glm6detail11compute_absIfLb1EE4callEf, symObjAddr: 0xA494, symBinAddr: 0x100037360, symSize: 0x44 }
  - { offsetInCU: 0x13ED7, offset: 0x439F9, size: 0x8, addend: 0x0, symName: __ZNSt3__123__libcpp_numeric_limitsIfLb1EE7epsilonB7v160006Ev, symObjAddr: 0xA4D8, symBinAddr: 0x1000373A4, symSize: 0x8 }
  - { offsetInCU: 0x13EEB, offset: 0x43A0D, size: 0x8, addend: 0x0, symName: __ZN3glm6detail17compute_normalizeILi3EfLNS_9qualifierE0ELb0EE4callERKNS_3vecILi3EfLS2_0EEE, symObjAddr: 0xA4E0, symBinAddr: 0x1000373AC, symSize: 0x48 }
  - { offsetInCU: 0x13F0E, offset: 0x43A30, size: 0x8, addend: 0x0, symName: __Z4sqrtB7v160006f, symObjAddr: 0xA584, symBinAddr: 0x100037450, symSize: 0x18 }
  - { offsetInCU: 0x13F3C, offset: 0x43A5E, size: 0x8, addend: 0x0, symName: __ZN3glm6detail11compute_dotINS_3vecILi3EfLNS_9qualifierE0EEEfLb0EE4callERKS4_S7_, symObjAddr: 0xA59C, symBinAddr: 0x100037468, symSize: 0x44 }
  - { offsetInCU: 0x13F7B, offset: 0x43A9D, size: 0x8, addend: 0x0, symName: __ZN3glm6detail13compute_crossIfLNS_9qualifierE0ELb0EE4callERKNS_3vecILi3EfLS2_0EEES7_, symObjAddr: 0xA654, symBinAddr: 0x100037520, symSize: 0xB0 }
  - { offsetInCU: 0x13FAC, offset: 0x43ACE, size: 0x8, addend: 0x0, symName: __ZN3glm3matILi4ELi4EfLNS_9qualifierE0EEC2ERKf, symObjAddr: 0xA718, symBinAddr: 0x1000375D0, symSize: 0x130 }
  - { offsetInCU: 0x13FE5, offset: 0x43B07, size: 0x8, addend: 0x0, symName: __ZN3glm3vecILi4EfLNS_9qualifierE0EEC1Ev, symObjAddr: 0xA848, symBinAddr: 0x100037700, symSize: 0x2C }
  - { offsetInCU: 0x14011, offset: 0x43B33, size: 0x8, addend: 0x0, symName: __ZN3glm3vecILi4EfLNS_9qualifierE0EEC1IfiiiEET_T0_T1_T2_, symObjAddr: 0xA874, symBinAddr: 0x10003772C, symSize: 0x4C }
  - { offsetInCU: 0x14099, offset: 0x43BBB, size: 0x8, addend: 0x0, symName: __ZN3glm3vecILi4EfLNS_9qualifierE0EEC1IifiiEET_T0_T1_T2_, symObjAddr: 0xA8C0, symBinAddr: 0x100037778, symSize: 0x4C }
  - { offsetInCU: 0x14121, offset: 0x43C43, size: 0x8, addend: 0x0, symName: __ZN3glm3vecILi4EfLNS_9qualifierE0EEC1IiifiEET_T0_T1_T2_, symObjAddr: 0xA90C, symBinAddr: 0x1000377C4, symSize: 0x4C }
  - { offsetInCU: 0x141A9, offset: 0x43CCB, size: 0x8, addend: 0x0, symName: __ZN3glm3vecILi4EfLNS_9qualifierE0EEC1IiiifEET_T0_T1_T2_, symObjAddr: 0xA958, symBinAddr: 0x100037810, symSize: 0x4C }
  - { offsetInCU: 0x14231, offset: 0x43D53, size: 0x8, addend: 0x0, symName: __ZN3glm3vecILi4EfLNS_9qualifierE0EEC2Ev, symObjAddr: 0xA9A4, symBinAddr: 0x10003785C, symSize: 0x14 }
  - { offsetInCU: 0x1425D, offset: 0x43D7F, size: 0x8, addend: 0x0, symName: __ZN3glm3vecILi4EfLNS_9qualifierE0EEC2IfiiiEET_T0_T1_T2_, symObjAddr: 0xA9B8, symBinAddr: 0x100037870, symSize: 0x50 }
  - { offsetInCU: 0x142E5, offset: 0x43E07, size: 0x8, addend: 0x0, symName: __ZN3glm3vecILi4EfLNS_9qualifierE0EEC2IifiiEET_T0_T1_T2_, symObjAddr: 0xAA08, symBinAddr: 0x1000378C0, symSize: 0x50 }
  - { offsetInCU: 0x1436D, offset: 0x43E8F, size: 0x8, addend: 0x0, symName: __ZN3glm3vecILi4EfLNS_9qualifierE0EEC2IiifiEET_T0_T1_T2_, symObjAddr: 0xAA58, symBinAddr: 0x100037910, symSize: 0x50 }
  - { offsetInCU: 0x143F5, offset: 0x43F17, size: 0x8, addend: 0x0, symName: __ZN3glm3vecILi4EfLNS_9qualifierE0EEC2IiiifEET_T0_T1_T2_, symObjAddr: 0xAAA8, symBinAddr: 0x100037960, symSize: 0x50 }
  - { offsetInCU: 0x1447D, offset: 0x43F9F, size: 0x8, addend: 0x0, symName: __ZN3glm3matILi4ELi4EfLNS_9qualifierE0EE6lengthEv, symObjAddr: 0xAAF8, symBinAddr: 0x1000379B0, symSize: 0x8 }
  - { offsetInCU: 0x14491, offset: 0x43FB3, size: 0x8, addend: 0x0, symName: __ZN3glm3vecILi4EfLNS_9qualifierE0EE6lengthEv, symObjAddr: 0xAB00, symBinAddr: 0x1000379B8, symSize: 0x8 }
  - { offsetInCU: 0x144A5, offset: 0x43FC7, size: 0x8, addend: 0x0, symName: __ZN3glm3vecILi4EfLNS_9qualifierE0EEC2Effff, symObjAddr: 0xAB08, symBinAddr: 0x1000379C0, symSize: 0x44 }
  - { offsetInCU: 0x14509, offset: 0x4402B, size: 0x8, addend: 0x0, symName: __ZNK3glm3matILi4ELi4EfLNS_9qualifierE0EEixEi, symObjAddr: 0xAB4C, symBinAddr: 0x100037A04, symSize: 0x78 }
  - { offsetInCU: 0x14540, offset: 0x44062, size: 0x8, addend: 0x0, symName: __ZN3glm3vecILi4EfLNS_9qualifierE0EEC1ERKS2_, symObjAddr: 0xABC4, symBinAddr: 0x100037A7C, symSize: 0x34 }
  - { offsetInCU: 0x1457A, offset: 0x4409C, size: 0x8, addend: 0x0, symName: __ZN3glm3matILi4ELi4EfLNS_9qualifierE0EEC1Ev, symObjAddr: 0xABF8, symBinAddr: 0x100037AB0, symSize: 0x2C }
  - { offsetInCU: 0x145A6, offset: 0x440C8, size: 0x8, addend: 0x0, symName: __ZNK3glm3vecILi4EfLNS_9qualifierE0EEixEi, symObjAddr: 0xACD8, symBinAddr: 0x100037B90, symSize: 0x10C }
  - { offsetInCU: 0x145DD, offset: 0x440FF, size: 0x8, addend: 0x0, symName: __ZN3glm3vecILi4EfLNS_9qualifierE0EEC2ERKS2_, symObjAddr: 0xADF4, symBinAddr: 0x100037CAC, symSize: 0x48 }
  - { offsetInCU: 0x14617, offset: 0x44139, size: 0x8, addend: 0x0, symName: __ZN3glm3matILi4ELi4EfLNS_9qualifierE0EEC2Ev, symObjAddr: 0xAE3C, symBinAddr: 0x100037CF4, symSize: 0x68 }
  - { offsetInCU: 0x14643, offset: 0x44165, size: 0x8, addend: 0x0, symName: __ZN3glm3vecILi4EfLNS_9qualifierE0EEpLIfEERS2_RKNS0_ILi4ET_LS1_0EEE, symObjAddr: 0xAEA4, symBinAddr: 0x100037D5C, symSize: 0x58 }
  - { offsetInCU: 0x14684, offset: 0x441A6, size: 0x8, addend: 0x0, symName: __ZN3glm6detail16compute_vec4_addIfLNS_9qualifierE0ELb0EE4callERKNS_3vecILi4EfLS2_0EEES7_, symObjAddr: 0xAEFC, symBinAddr: 0x100037DB4, symSize: 0x88 }
  - { offsetInCU: 0x146B5, offset: 0x441D7, size: 0x8, addend: 0x0, symName: __ZN3glm3vecILi4EfLNS_9qualifierE0EEmLIfEERS2_T_, symObjAddr: 0xAF84, symBinAddr: 0x100037E3C, symSize: 0x58 }
  - { offsetInCU: 0x146F6, offset: 0x44218, size: 0x8, addend: 0x0, symName: __ZN3glm6detail16compute_vec4_mulIfLNS_9qualifierE0ELb0EE4callERKNS_3vecILi4EfLS2_0EEES7_, symObjAddr: 0xAFDC, symBinAddr: 0x100037E94, symSize: 0x88 }
  - { offsetInCU: 0x14727, offset: 0x44249, size: 0x8, addend: 0x0, symName: __ZN3glm3vecILi4EfLNS_9qualifierE0EEC1Ef, symObjAddr: 0xB064, symBinAddr: 0x100037F1C, symSize: 0x34 }
  - { offsetInCU: 0x14761, offset: 0x44283, size: 0x8, addend: 0x0, symName: __ZN3glm3vecILi4EfLNS_9qualifierE0EEC2Ef, symObjAddr: 0xB098, symBinAddr: 0x100037F50, symSize: 0x38 }
...
